ARM GAS  /tmp/ccdvFsFe.s 			page 1


   1              		.cpu cortex-m4
   2              		.arch armv7e-m
   3              		.fpu fpv4-sp-d16
   4              		.eabi_attribute 27, 1
   5              		.eabi_attribute 28, 1
   6              		.eabi_attribute 20, 1
   7              		.eabi_attribute 21, 1
   8              		.eabi_attribute 23, 3
   9              		.eabi_attribute 24, 1
  10              		.eabi_attribute 25, 1
  11              		.eabi_attribute 26, 1
  12              		.eabi_attribute 30, 1
  13              		.eabi_attribute 34, 1
  14              		.eabi_attribute 18, 4
  15              		.file	"concrete_interrupt_handlers.cpp"
  16              		.text
  17              	.Ltext0:
  18              		.cfi_sections	.debug_frame
  19              		.file 1 "Intermediate/Src/concrete_interrupt_handlers.cpp"
  20              		.section	.text._ZN9i2sObject3irqEv,"ax",%progbits
  21              		.align	1
  22              		.global	_ZN9i2sObject3irqEv
  23              		.syntax unified
  24              		.thumb
  25              		.thumb_func
  27              	_ZN9i2sObject3irqEv:
  28              		.fnstart
  29              	.LVL0:
  30              	.LFB142:
   1:Intermediate/Src/concrete_interrupt_handlers.cpp **** #include "concrete_interrupt_handlers.h"
   2:Intermediate/Src/concrete_interrupt_handlers.cpp **** 
   3:Intermediate/Src/concrete_interrupt_handlers.cpp **** i2sObject::i2sObject() : isBufferEmpty(true),hi2s(nullptr) {}
   4:Intermediate/Src/concrete_interrupt_handlers.cpp **** 
   5:Intermediate/Src/concrete_interrupt_handlers.cpp **** i2sObject::i2sObject(I2S_HandleTypeDef& hi2s) : isBufferEmpty(true), hi2s(&hi2s) {}
   6:Intermediate/Src/concrete_interrupt_handlers.cpp **** 
   7:Intermediate/Src/concrete_interrupt_handlers.cpp **** i2sObject& i2sObject::operator=(const i2sObject& other) {
   8:Intermediate/Src/concrete_interrupt_handlers.cpp ****     this->hi2s = other.hi2s;
   9:Intermediate/Src/concrete_interrupt_handlers.cpp **** }
  10:Intermediate/Src/concrete_interrupt_handlers.cpp **** 
  11:Intermediate/Src/concrete_interrupt_handlers.cpp **** void i2sObject::irq(){
  31              		.loc 1 11 22 view -0
  32              		.cfi_startproc
  33              		@ args = 0, pretend = 0, frame = 0
  34              		@ frame_needed = 0, uses_anonymous_args = 0
  35              		@ link register save eliminated.
  12:Intermediate/Src/concrete_interrupt_handlers.cpp ****     this->isBufferEmpty = true;
  36              		.loc 1 12 5 view .LVU1
  37              		.loc 1 12 25 is_stmt 0 view .LVU2
  38 0000 0123     		movs	r3, #1
  39 0002 0371     		strb	r3, [r0, #4]
  13:Intermediate/Src/concrete_interrupt_handlers.cpp **** }
  40              		.loc 1 13 1 view .LVU3
  41 0004 7047     		bx	lr
  42              		.cfi_endproc
  43              	.LFE142:
  44              		.cantunwind
  45              		.fnend
ARM GAS  /tmp/ccdvFsFe.s 			page 2


  47              		.section	.text._ZN9i2sObjectC2Ev,"ax",%progbits
  48              		.align	1
  49              		.global	_ZN9i2sObjectC2Ev
  50              		.syntax unified
  51              		.thumb
  52              		.thumb_func
  54              	_ZN9i2sObjectC2Ev:
  55              		.fnstart
  56              	.LVL1:
  57              	.LFB136:
   3:Intermediate/Src/concrete_interrupt_handlers.cpp **** 
  58              		.loc 1 3 1 is_stmt 1 view -0
  59              		.cfi_startproc
  60              		@ args = 0, pretend = 0, frame = 0
  61              		@ frame_needed = 0, uses_anonymous_args = 0
  62              		@ link register save eliminated.
  63              	.LBB10:
  64              	.LBB11:
  65              	.LBI11:
  66              		.file 2 "Intermediate/Inc/interrupt_handler.h"
   1:Intermediate/Inc/interrupt_handler.h **** class InterruptHandler {
  67              		.loc 2 1 7 view .LVU5
  68              	.LBB12:
  69 0000 044A     		ldr	r2, .L3
  70 0002 0260     		str	r2, [r0]
  71              	.LVL2:
  72              		.loc 2 1 7 is_stmt 0 view .LVU6
  73              	.LBE12:
  74              	.LBE11:
   3:Intermediate/Src/concrete_interrupt_handlers.cpp **** 
  75              		.loc 1 3 58 discriminator 1 view .LVU7
  76 0004 044A     		ldr	r2, .L3+4
  77 0006 0260     		str	r2, [r0]
   3:Intermediate/Src/concrete_interrupt_handlers.cpp **** 
  78              		.loc 1 3 26 discriminator 1 view .LVU8
  79 0008 0122     		movs	r2, #1
  80 000a 0271     		strb	r2, [r0, #4]
   3:Intermediate/Src/concrete_interrupt_handlers.cpp **** 
  81              		.loc 1 3 46 discriminator 1 view .LVU9
  82 000c 0022     		movs	r2, #0
  83 000e 8260     		str	r2, [r0, #8]
  84              	.LBE10:
   3:Intermediate/Src/concrete_interrupt_handlers.cpp **** 
  85              		.loc 1 3 61 view .LVU10
  86 0010 7047     		bx	lr
  87              	.L4:
  88 0012 00BF     		.align	2
  89              	.L3:
  90 0014 08000000 		.word	_ZTV16InterruptHandler+8
  91 0018 08000000 		.word	_ZTV9i2sObject+8
  92              		.cfi_endproc
  93              	.LFE136:
  94              		.cantunwind
  95              		.fnend
  97              		.global	_ZN9i2sObjectC1Ev
  98              		.thumb_set _ZN9i2sObjectC1Ev,_ZN9i2sObjectC2Ev
  99              		.section	.text._ZN9i2sObjectC2ER19__I2S_HandleTypeDef,"ax",%progbits
ARM GAS  /tmp/ccdvFsFe.s 			page 3


 100              		.align	1
 101              		.global	_ZN9i2sObjectC2ER19__I2S_HandleTypeDef
 102              		.syntax unified
 103              		.thumb
 104              		.thumb_func
 106              	_ZN9i2sObjectC2ER19__I2S_HandleTypeDef:
 107              		.fnstart
 108              	.LVL3:
 109              	.LFB139:
   5:Intermediate/Src/concrete_interrupt_handlers.cpp **** 
 110              		.loc 1 5 1 is_stmt 1 view -0
 111              		.cfi_startproc
 112              		@ args = 0, pretend = 0, frame = 0
 113              		@ frame_needed = 0, uses_anonymous_args = 0
 114              		@ link register save eliminated.
 115              	.LBB13:
 116              	.LBB14:
 117              	.LBI14:
 118              		.loc 2 1 7 view .LVU12
 119              	.LBB15:
 120 0000 034A     		ldr	r2, .L6
 121 0002 0260     		str	r2, [r0]
 122              	.LVL4:
 123              		.loc 2 1 7 is_stmt 0 view .LVU13
 124              	.LBE15:
 125              	.LBE14:
   5:Intermediate/Src/concrete_interrupt_handlers.cpp **** 
 126              		.loc 1 5 80 discriminator 1 view .LVU14
 127 0004 034A     		ldr	r2, .L6+4
 128 0006 0260     		str	r2, [r0]
   5:Intermediate/Src/concrete_interrupt_handlers.cpp **** 
 129              		.loc 1 5 49 discriminator 1 view .LVU15
 130 0008 0122     		movs	r2, #1
 131 000a 0271     		strb	r2, [r0, #4]
   5:Intermediate/Src/concrete_interrupt_handlers.cpp **** 
 132              		.loc 1 5 70 discriminator 1 view .LVU16
 133 000c 8160     		str	r1, [r0, #8]
 134              	.LBE13:
   5:Intermediate/Src/concrete_interrupt_handlers.cpp **** 
 135              		.loc 1 5 83 view .LVU17
 136 000e 7047     		bx	lr
 137              	.L7:
 138              		.align	2
 139              	.L6:
 140 0010 08000000 		.word	_ZTV16InterruptHandler+8
 141 0014 08000000 		.word	_ZTV9i2sObject+8
 142              		.cfi_endproc
 143              	.LFE139:
 144              		.cantunwind
 145              		.fnend
 147              		.global	_ZN9i2sObjectC1ER19__I2S_HandleTypeDef
 148              		.thumb_set _ZN9i2sObjectC1ER19__I2S_HandleTypeDef,_ZN9i2sObjectC2ER19__I2S_HandleTypeDef
 149              		.section	.text._ZN9i2sObjectaSERKS_,"ax",%progbits
 150              		.align	1
 151              		.global	_ZN9i2sObjectaSERKS_
 152              		.syntax unified
 153              		.thumb
ARM GAS  /tmp/ccdvFsFe.s 			page 4


 154              		.thumb_func
 156              	_ZN9i2sObjectaSERKS_:
 157              		.fnstart
 158              	.LVL5:
 159              	.LFB141:
   7:Intermediate/Src/concrete_interrupt_handlers.cpp ****     this->hi2s = other.hi2s;
 160              		.loc 1 7 57 is_stmt 1 view -0
 161              		.cfi_startproc
 162              		@ Volatile: function does not return.
 163              		@ args = 0, pretend = 0, frame = 0
 164              		@ frame_needed = 0, uses_anonymous_args = 0
 165              		@ link register save eliminated.
   8:Intermediate/Src/concrete_interrupt_handlers.cpp **** }
 166              		.loc 1 8 5 view .LVU19
   8:Intermediate/Src/concrete_interrupt_handlers.cpp **** }
 167              		.loc 1 8 24 is_stmt 0 view .LVU20
 168 0000 8B68     		ldr	r3, [r1, #8]
   8:Intermediate/Src/concrete_interrupt_handlers.cpp **** }
 169              		.loc 1 8 16 view .LVU21
 170 0002 8360     		str	r3, [r0, #8]
 171 0004 FFDE     		.inst	0xdeff
 172              		.cfi_endproc
 173              	.LFE141:
 174              		.cantunwind
 175              		.fnend
 177              		.section	.text._ZN9i2sObject13bufferIsEmptyEv,"ax",%progbits
 178              		.align	1
 179              		.global	_ZN9i2sObject13bufferIsEmptyEv
 180              		.syntax unified
 181              		.thumb
 182              		.thumb_func
 184              	_ZN9i2sObject13bufferIsEmptyEv:
 185              		.fnstart
 186              	.LVL6:
 187              	.LFB143:
  14:Intermediate/Src/concrete_interrupt_handlers.cpp **** 
  15:Intermediate/Src/concrete_interrupt_handlers.cpp **** bool i2sObject::bufferIsEmpty() {
 188              		.loc 1 15 33 is_stmt 1 view -0
 189              		.cfi_startproc
 190              		@ args = 0, pretend = 0, frame = 0
 191              		@ frame_needed = 0, uses_anonymous_args = 0
 192              		@ link register save eliminated.
  16:Intermediate/Src/concrete_interrupt_handlers.cpp ****     return this->isBufferEmpty;
 193              		.loc 1 16 5 view .LVU24
  17:Intermediate/Src/concrete_interrupt_handlers.cpp **** }
 194              		.loc 1 17 1 is_stmt 0 view .LVU25
 195 0000 0079     		ldrb	r0, [r0, #4]	@ zero_extendqisi2
 196              	.LVL7:
 197              		.loc 1 17 1 view .LVU26
 198 0002 7047     		bx	lr
 199              		.cfi_endproc
 200              	.LFE143:
 201              		.cantunwind
 202              		.fnend
 204              		.section	.text._ZN9i2sObject18resetIsBufferEmptyEv,"ax",%progbits
 205              		.align	1
 206              		.global	_ZN9i2sObject18resetIsBufferEmptyEv
ARM GAS  /tmp/ccdvFsFe.s 			page 5


 207              		.syntax unified
 208              		.thumb
 209              		.thumb_func
 211              	_ZN9i2sObject18resetIsBufferEmptyEv:
 212              		.fnstart
 213              	.LVL8:
 214              	.LFB144:
  18:Intermediate/Src/concrete_interrupt_handlers.cpp **** 
  19:Intermediate/Src/concrete_interrupt_handlers.cpp **** void i2sObject::resetIsBufferEmpty() {
 215              		.loc 1 19 38 is_stmt 1 view -0
 216              		.cfi_startproc
 217              		@ args = 0, pretend = 0, frame = 0
 218              		@ frame_needed = 0, uses_anonymous_args = 0
 219              		@ link register save eliminated.
  20:Intermediate/Src/concrete_interrupt_handlers.cpp ****     isBufferEmpty = false;
 220              		.loc 1 20 5 view .LVU28
 221              		.loc 1 20 19 is_stmt 0 view .LVU29
 222 0000 0023     		movs	r3, #0
 223 0002 0371     		strb	r3, [r0, #4]
  21:Intermediate/Src/concrete_interrupt_handlers.cpp **** }...
 224              		.loc 1 21 1 view .LVU30
 225 0004 7047     		bx	lr
 226              		.cfi_endproc
 227              	.LFE144:
 228              		.cantunwind
 229              		.fnend
 231              		.weak	_ZTS16InterruptHandler
 232              		.section	.rodata._ZTS16InterruptHandler,"aG",%progbits,_ZTS16InterruptHandler,comdat
 233              		.align	2
 236              	_ZTS16InterruptHandler:
 237 0000 3136496E 		.ascii	"16InterruptHandler\000"
 237      74657272 
 237      75707448 
 237      616E646C 
 237      657200
 238              		.weak	_ZTI16InterruptHandler
 239              		.section	.rodata._ZTI16InterruptHandler,"aG",%progbits,_ZTI16InterruptHandler,comdat
 240              		.align	2
 243              	_ZTI16InterruptHandler:
 244 0000 08000000 		.word	_ZTVN10__cxxabiv117__class_type_infoE+8
 245 0004 00000000 		.word	_ZTS16InterruptHandler
 246              		.global	_ZTS9i2sObject
 247              		.section	.rodata._ZTS9i2sObject,"a"
 248              		.align	2
 251              	_ZTS9i2sObject:
 252 0000 39693273 		.ascii	"9i2sObject\000"
 252      4F626A65 
 252      637400
 253              		.global	_ZTI9i2sObject
 254              		.section	.rodata._ZTI9i2sObject,"a"
 255              		.align	2
 258              	_ZTI9i2sObject:
 259 0000 08000000 		.word	_ZTVN10__cxxabiv120__si_class_type_infoE+8
 260 0004 00000000 		.word	_ZTS9i2sObject
 261 0008 00000000 		.word	_ZTI16InterruptHandler
 262              		.weak	_ZTV16InterruptHandler
 263              		.section	.rodata._ZTV16InterruptHandler,"aG",%progbits,_ZTV16InterruptHandler,comdat
ARM GAS  /tmp/ccdvFsFe.s 			page 6


 264              		.align	2
 267              	_ZTV16InterruptHandler:
 268 0000 00000000 		.word	0
 269 0004 00000000 		.word	_ZTI16InterruptHandler
 270 0008 00000000 		.word	__cxa_pure_virtual
 271              		.global	_ZTV9i2sObject
 272              		.section	.rodata._ZTV9i2sObject,"a"
 273              		.align	2
 276              	_ZTV9i2sObject:
 277 0000 00000000 		.word	0
 278 0004 00000000 		.word	_ZTI9i2sObject
 279 0008 00000000 		.word	_ZN9i2sObject3irqEv
 280              		.weak	__cxa_pure_virtual
 281              		.text
 282              	.Letext0:
 283              		.file 3 "/usr/arm-none-eabi/include/machine/_default_types.h"
 284              		.file 4 "/usr/arm-none-eabi/include/sys/_stdint.h"
 285              		.file 5 "Drivers/CMSIS/Device/ST/STM32F4xx/Include/stm32f401xc.h"
 286              		.file 6 "Drivers/CMSIS/Device/ST/STM32F4xx/Include/stm32f4xx.h"
 287              		.file 7 "Drivers/STM32F4xx_HAL_Driver/Inc/stm32f4xx_hal_def.h"
 288              		.file 8 "Drivers/STM32F4xx_HAL_Driver/Inc/stm32f4xx_hal_dma.h"
 289              		.file 9 "Drivers/STM32F4xx_HAL_Driver/Inc/stm32f4xx_hal_i2s.h"
 290              		.file 10 "Drivers/STM32F4xx_HAL_Driver/Inc/stm32f4xx_hal.h"
 291              		.file 11 "Intermediate/Inc/concrete_interrupt_handlers.h"
ARM GAS  /tmp/ccdvFsFe.s 			page 7

