ARM GAS  /tmp/ccgUkepq.s 			page 1


   1              		.cpu cortex-m4
   2              		.arch armv7e-m
   3              		.fpu fpv4-sp-d16
   4              		.eabi_attribute 27, 1
   5              		.eabi_attribute 28, 1
   6              		.eabi_attribute 20, 1
   7              		.eabi_attribute 21, 1
   8              		.eabi_attribute 23, 3
   9              		.eabi_attribute 24, 1
  10              		.eabi_attribute 25, 1
  11              		.eabi_attribute 26, 1
  12              		.eabi_attribute 30, 1
  13              		.eabi_attribute 34, 1
  14              		.eabi_attribute 18, 4
  15              		.file	"main.cpp"
  16              		.text
  17              	.Ltext0:
  18              		.cfi_sections	.debug_frame
  19              		.file 1 "Core/Src/main.cpp"
  20              		.section	.text._ZL12MX_GPIO_Initv,"ax",%progbits
  21              		.align	1
  22              		.syntax unified
  23              		.thumb
  24              		.thumb_func
  26              	_ZL12MX_GPIO_Initv:
  27              		.fnstart
  28              	.LFB593:
   1:Core/Src/main.cpp **** /* USER CODE BEGIN Header */
   2:Core/Src/main.cpp **** /**
   3:Core/Src/main.cpp ****   ******************************************************************************
   4:Core/Src/main.cpp ****   * @file           : main.c
   5:Core/Src/main.cpp ****   * @brief          : Main program body
   6:Core/Src/main.cpp ****   ******************************************************************************
   7:Core/Src/main.cpp ****   * @attention
   8:Core/Src/main.cpp ****   *
   9:Core/Src/main.cpp ****   * Copyright (c) 2024 STMicroelectronics.
  10:Core/Src/main.cpp ****   * All rights reserved.
  11:Core/Src/main.cpp ****   *
  12:Core/Src/main.cpp ****   * This software is licensed under terms that can be found in the LICENSE file
  13:Core/Src/main.cpp ****   * in the root directory of this software component.
  14:Core/Src/main.cpp ****   * If no LICENSE file comes with this software, it is provided AS-IS.
  15:Core/Src/main.cpp ****   *
  16:Core/Src/main.cpp ****   ******************************************************************************
  17:Core/Src/main.cpp ****   */
  18:Core/Src/main.cpp **** /* USER CODE END Header */
  19:Core/Src/main.cpp **** /* Includes ------------------------------------------------------------------*/
  20:Core/Src/main.cpp **** 
  21:Core/Src/main.cpp **** #include "main.h"
  22:Core/Src/main.cpp **** 
  23:Core/Src/main.cpp **** 
  24:Core/Src/main.cpp **** /* Private includes ----------------------------------------------------------*/
  25:Core/Src/main.cpp **** /* USER CODE BEGIN Includes */
  26:Core/Src/main.cpp **** #include "audio_test.h"
  27:Core/Src/main.cpp **** /* USER CODE END Includes */
  28:Core/Src/main.cpp **** 
  29:Core/Src/main.cpp **** /* Private typedef -----------------------------------------------------------*/
  30:Core/Src/main.cpp **** /* USER CODE BEGIN PTD */
ARM GAS  /tmp/ccgUkepq.s 			page 2


  31:Core/Src/main.cpp **** 
  32:Core/Src/main.cpp **** /* USER CODE END PTD */
  33:Core/Src/main.cpp **** 
  34:Core/Src/main.cpp **** /* Private define ------------------------------------------------------------*/
  35:Core/Src/main.cpp **** /* USER CODE BEGIN PD */
  36:Core/Src/main.cpp **** const int n_interrupts = 1;
  37:Core/Src/main.cpp **** const int spi_txcplt_irqn = 0;
  38:Core/Src/main.cpp **** /* USER CODE END PD */
  39:Core/Src/main.cpp **** 
  40:Core/Src/main.cpp **** /* Private macro -------------------------------------------------------------*/
  41:Core/Src/main.cpp **** /* USER CODE BEGIN PM */
  42:Core/Src/main.cpp **** 
  43:Core/Src/main.cpp **** /* USER CODE END PM */
  44:Core/Src/main.cpp **** 
  45:Core/Src/main.cpp **** /* Private variables ---------------------------------------------------------*/
  46:Core/Src/main.cpp **** I2C_HandleTypeDef hi2c1;
  47:Core/Src/main.cpp **** 
  48:Core/Src/main.cpp **** I2S_HandleTypeDef hi2s2;
  49:Core/Src/main.cpp **** DMA_HandleTypeDef hdma_spi2_tx;
  50:Core/Src/main.cpp **** 
  51:Core/Src/main.cpp **** RTC_HandleTypeDef hrtc;
  52:Core/Src/main.cpp **** 
  53:Core/Src/main.cpp **** SPI_HandleTypeDef hspi1;
  54:Core/Src/main.cpp **** 
  55:Core/Src/main.cpp **** UART_HandleTypeDef huart1;
  56:Core/Src/main.cpp **** 
  57:Core/Src/main.cpp **** /* USER CODE BEGIN PV */
  58:Core/Src/main.cpp **** 
  59:Core/Src/main.cpp **** i2sObject i2sObj(hi2s2);
  60:Core/Src/main.cpp **** 
  61:Core/Src/main.cpp **** static InterruptHandler *Handlers[n_interrupts];
  62:Core/Src/main.cpp **** 
  63:Core/Src/main.cpp **** /* USER CODE END PV */
  64:Core/Src/main.cpp **** 
  65:Core/Src/main.cpp **** /* Private function prototypes -----------------------------------------------*/
  66:Core/Src/main.cpp **** void SystemClock_Config(void);
  67:Core/Src/main.cpp **** static void MX_GPIO_Init(void);
  68:Core/Src/main.cpp **** static void MX_DMA_Init(void);
  69:Core/Src/main.cpp **** static void MX_I2C1_Init(void);
  70:Core/Src/main.cpp **** static void MX_I2S2_Init(void);
  71:Core/Src/main.cpp **** static void MX_SPI1_Init(void);
  72:Core/Src/main.cpp **** static void MX_USART1_UART_Init(void);
  73:Core/Src/main.cpp **** static void MX_RTC_Init(void);
  74:Core/Src/main.cpp **** void register_handler(int irq_n, InterruptHandler* handler);
  75:Core/Src/main.cpp **** /* USER CODE BEGIN PFP */
  76:Core/Src/main.cpp **** 
  77:Core/Src/main.cpp **** /* USER CODE END PFP */
  78:Core/Src/main.cpp **** 
  79:Core/Src/main.cpp **** /* Private user code ---------------------------------------------------------*/
  80:Core/Src/main.cpp **** /* USER CODE BEGIN 0 */
  81:Core/Src/main.cpp **** 
  82:Core/Src/main.cpp **** /* USER CODE END 0 */
  83:Core/Src/main.cpp **** 
  84:Core/Src/main.cpp **** /**
  85:Core/Src/main.cpp ****   * @brief  The application entry point.
  86:Core/Src/main.cpp ****   * @retval int
  87:Core/Src/main.cpp ****   */
ARM GAS  /tmp/ccgUkepq.s 			page 3


  88:Core/Src/main.cpp **** int main(void)
  89:Core/Src/main.cpp **** {
  90:Core/Src/main.cpp ****   /* USER CODE BEGIN 1 */
  91:Core/Src/main.cpp ****   
  92:Core/Src/main.cpp ****   /* USER CODE END 1 */
  93:Core/Src/main.cpp **** 
  94:Core/Src/main.cpp ****   /* MCU Configuration--------------------------------------------------------*/
  95:Core/Src/main.cpp **** 
  96:Core/Src/main.cpp ****   /* Reset of all peripherals, Initializes the Flash interface and the Systick. */
  97:Core/Src/main.cpp ****   HAL_Init();
  98:Core/Src/main.cpp **** 
  99:Core/Src/main.cpp ****   /* USER CODE BEGIN Init */
 100:Core/Src/main.cpp **** 
 101:Core/Src/main.cpp ****   /* USER CODE END Init */
 102:Core/Src/main.cpp **** 
 103:Core/Src/main.cpp ****   /* Configure the system clock */
 104:Core/Src/main.cpp ****   SystemClock_Config();
 105:Core/Src/main.cpp **** 
 106:Core/Src/main.cpp ****   /* USER CODE BEGIN SysInit */
 107:Core/Src/main.cpp **** 
 108:Core/Src/main.cpp ****   /* USER CODE END SysInit */
 109:Core/Src/main.cpp **** 
 110:Core/Src/main.cpp ****   /* Initialize all configured peripherals */
 111:Core/Src/main.cpp ****   MX_GPIO_Init();
 112:Core/Src/main.cpp ****   MX_DMA_Init();
 113:Core/Src/main.cpp ****   MX_I2C1_Init();
 114:Core/Src/main.cpp ****   MX_I2S2_Init();
 115:Core/Src/main.cpp ****   MX_SPI1_Init();
 116:Core/Src/main.cpp ****   MX_USART1_UART_Init();
 117:Core/Src/main.cpp ****   MX_RTC_Init();
 118:Core/Src/main.cpp ****   /* USER CODE BEGIN 2 */
 119:Core/Src/main.cpp ****   register_handler(spi_txcplt_irqn, &i2sObj);
 120:Core/Src/main.cpp ****   audio_test::runTest(hi2c1, hdma_spi2_tx, i2sObj);
 121:Core/Src/main.cpp ****   /* USER CODE END 2 */
 122:Core/Src/main.cpp **** 
 123:Core/Src/main.cpp ****   /* Infinite loop */
 124:Core/Src/main.cpp ****   /* USER CODE BEGIN WHILE */
 125:Core/Src/main.cpp ****   while (1)
 126:Core/Src/main.cpp ****   {
 127:Core/Src/main.cpp ****     /* USER CODE END WHILE */
 128:Core/Src/main.cpp **** 
 129:Core/Src/main.cpp ****     /* USER CODE BEGIN 3 */
 130:Core/Src/main.cpp ****   }
 131:Core/Src/main.cpp ****   /* USER CODE END 3 */
 132:Core/Src/main.cpp **** }
 133:Core/Src/main.cpp **** 
 134:Core/Src/main.cpp **** /**
 135:Core/Src/main.cpp ****   * @brief System Clock Configuration
 136:Core/Src/main.cpp ****   * @retval None
 137:Core/Src/main.cpp ****   */
 138:Core/Src/main.cpp **** void SystemClock_Config(void)
 139:Core/Src/main.cpp **** {
 140:Core/Src/main.cpp ****   RCC_OscInitTypeDef RCC_OscInitStruct = {0};
 141:Core/Src/main.cpp ****   RCC_ClkInitTypeDef RCC_ClkInitStruct = {0};
 142:Core/Src/main.cpp **** 
 143:Core/Src/main.cpp ****   /** Configure the main internal regulator output voltage
 144:Core/Src/main.cpp ****   */
ARM GAS  /tmp/ccgUkepq.s 			page 4


 145:Core/Src/main.cpp ****   __HAL_RCC_PWR_CLK_ENABLE();
 146:Core/Src/main.cpp ****   __HAL_PWR_VOLTAGESCALING_CONFIG(PWR_REGULATOR_VOLTAGE_SCALE2);
 147:Core/Src/main.cpp **** 
 148:Core/Src/main.cpp ****   /** Initializes the RCC Oscillators according to the specified parameters
 149:Core/Src/main.cpp ****   * in the RCC_OscInitTypeDef structure.
 150:Core/Src/main.cpp ****   */
 151:Core/Src/main.cpp ****   RCC_OscInitStruct.OscillatorType = RCC_OSCILLATORTYPE_HSI|RCC_OSCILLATORTYPE_LSI
 152:Core/Src/main.cpp ****                               |RCC_OSCILLATORTYPE_HSE;
 153:Core/Src/main.cpp ****   RCC_OscInitStruct.HSEState = RCC_HSE_ON;
 154:Core/Src/main.cpp ****   RCC_OscInitStruct.HSIState = RCC_HSI_ON;
 155:Core/Src/main.cpp ****   RCC_OscInitStruct.HSICalibrationValue = RCC_HSICALIBRATION_DEFAULT;
 156:Core/Src/main.cpp ****   RCC_OscInitStruct.LSIState = RCC_LSI_ON;
 157:Core/Src/main.cpp ****   RCC_OscInitStruct.PLL.PLLState = RCC_PLL_ON;
 158:Core/Src/main.cpp ****   RCC_OscInitStruct.PLL.PLLSource = RCC_PLLSOURCE_HSE;
 159:Core/Src/main.cpp ****   RCC_OscInitStruct.PLL.PLLM = 25;
 160:Core/Src/main.cpp ****   RCC_OscInitStruct.PLL.PLLN = 168;
 161:Core/Src/main.cpp ****   RCC_OscInitStruct.PLL.PLLP = RCC_PLLP_DIV2;
 162:Core/Src/main.cpp ****   RCC_OscInitStruct.PLL.PLLQ = 4;
 163:Core/Src/main.cpp ****   if (HAL_RCC_OscConfig(&RCC_OscInitStruct) != HAL_OK)
 164:Core/Src/main.cpp ****   {
 165:Core/Src/main.cpp ****     Error_Handler();
 166:Core/Src/main.cpp ****   }
 167:Core/Src/main.cpp **** 
 168:Core/Src/main.cpp ****   /** Initializes the CPU, AHB and APB buses clocks
 169:Core/Src/main.cpp ****   */
 170:Core/Src/main.cpp ****   RCC_ClkInitStruct.ClockType = RCC_CLOCKTYPE_HCLK|RCC_CLOCKTYPE_SYSCLK
 171:Core/Src/main.cpp ****                               |RCC_CLOCKTYPE_PCLK1|RCC_CLOCKTYPE_PCLK2;
 172:Core/Src/main.cpp ****   RCC_ClkInitStruct.SYSCLKSource = RCC_SYSCLKSOURCE_PLLCLK;
 173:Core/Src/main.cpp ****   RCC_ClkInitStruct.AHBCLKDivider = RCC_SYSCLK_DIV1;
 174:Core/Src/main.cpp ****   RCC_ClkInitStruct.APB1CLKDivider = RCC_HCLK_DIV2;
 175:Core/Src/main.cpp ****   RCC_ClkInitStruct.APB2CLKDivider = RCC_HCLK_DIV1;
 176:Core/Src/main.cpp **** 
 177:Core/Src/main.cpp ****   if (HAL_RCC_ClockConfig(&RCC_ClkInitStruct, FLASH_LATENCY_2) != HAL_OK)
 178:Core/Src/main.cpp ****   {
 179:Core/Src/main.cpp ****     Error_Handler();
 180:Core/Src/main.cpp ****   }
 181:Core/Src/main.cpp ****   HAL_RCC_MCOConfig(RCC_MCO1, RCC_MCO1SOURCE_HSI, RCC_MCODIV_1);
 182:Core/Src/main.cpp **** }
 183:Core/Src/main.cpp **** 
 184:Core/Src/main.cpp **** /**
 185:Core/Src/main.cpp ****   * @brief I2C1 Initialization Function
 186:Core/Src/main.cpp ****   * @param None
 187:Core/Src/main.cpp ****   * @retval None
 188:Core/Src/main.cpp ****   */
 189:Core/Src/main.cpp **** static void MX_I2C1_Init(void)
 190:Core/Src/main.cpp **** {
 191:Core/Src/main.cpp **** 
 192:Core/Src/main.cpp ****   /* USER CODE BEGIN I2C1_Init 0 */
 193:Core/Src/main.cpp **** 
 194:Core/Src/main.cpp ****   /* USER CODE END I2C1_Init 0 */
 195:Core/Src/main.cpp **** 
 196:Core/Src/main.cpp ****   /* USER CODE BEGIN I2C1_Init 1 */
 197:Core/Src/main.cpp **** 
 198:Core/Src/main.cpp ****   /* USER CODE END I2C1_Init 1 */
 199:Core/Src/main.cpp ****   hi2c1.Instance = I2C1;
 200:Core/Src/main.cpp ****   hi2c1.Init.ClockSpeed = 100000;
 201:Core/Src/main.cpp ****   hi2c1.Init.DutyCycle = I2C_DUTYCYCLE_2;
ARM GAS  /tmp/ccgUkepq.s 			page 5


 202:Core/Src/main.cpp ****   hi2c1.Init.OwnAddress1 = 0;
 203:Core/Src/main.cpp ****   hi2c1.Init.AddressingMode = I2C_ADDRESSINGMODE_7BIT;
 204:Core/Src/main.cpp ****   hi2c1.Init.DualAddressMode = I2C_DUALADDRESS_DISABLE;
 205:Core/Src/main.cpp ****   hi2c1.Init.OwnAddress2 = 0;
 206:Core/Src/main.cpp ****   hi2c1.Init.GeneralCallMode = I2C_GENERALCALL_DISABLE;
 207:Core/Src/main.cpp ****   hi2c1.Init.NoStretchMode = I2C_NOSTRETCH_DISABLE;
 208:Core/Src/main.cpp ****   if (HAL_I2C_Init(&hi2c1) != HAL_OK)
 209:Core/Src/main.cpp ****   {
 210:Core/Src/main.cpp ****     Error_Handler();
 211:Core/Src/main.cpp ****   }
 212:Core/Src/main.cpp ****   /* USER CODE BEGIN I2C1_Init 2 */
 213:Core/Src/main.cpp **** 
 214:Core/Src/main.cpp ****   /* USER CODE END I2C1_Init 2 */
 215:Core/Src/main.cpp **** 
 216:Core/Src/main.cpp **** }
 217:Core/Src/main.cpp **** 
 218:Core/Src/main.cpp **** /**
 219:Core/Src/main.cpp ****   * @brief I2S2 Initialization Function
 220:Core/Src/main.cpp ****   * @param None
 221:Core/Src/main.cpp ****   * @retval None
 222:Core/Src/main.cpp ****   */
 223:Core/Src/main.cpp **** static void MX_I2S2_Init(void)
 224:Core/Src/main.cpp **** {
 225:Core/Src/main.cpp **** 
 226:Core/Src/main.cpp ****   /* USER CODE BEGIN I2S2_Init 0 */
 227:Core/Src/main.cpp **** 
 228:Core/Src/main.cpp ****   /* USER CODE END I2S2_Init 0 */
 229:Core/Src/main.cpp **** 
 230:Core/Src/main.cpp ****   /* USER CODE BEGIN I2S2_Init 1 */
 231:Core/Src/main.cpp **** 
 232:Core/Src/main.cpp ****   /* USER CODE END I2S2_Init 1 */
 233:Core/Src/main.cpp ****   hi2s2.Instance = SPI2;
 234:Core/Src/main.cpp ****   hi2s2.Init.Mode = I2S_MODE_MASTER_TX;
 235:Core/Src/main.cpp ****   hi2s2.Init.Standard = I2S_STANDARD_MSB;
 236:Core/Src/main.cpp ****   hi2s2.Init.DataFormat = I2S_DATAFORMAT_32B;
 237:Core/Src/main.cpp ****   hi2s2.Init.MCLKOutput = I2S_MCLKOUTPUT_DISABLE;
 238:Core/Src/main.cpp ****   hi2s2.Init.AudioFreq = I2S_AUDIOFREQ_96K;
 239:Core/Src/main.cpp ****   hi2s2.Init.CPOL = I2S_CPOL_LOW;
 240:Core/Src/main.cpp ****   hi2s2.Init.ClockSource = I2S_CLOCK_PLL;
 241:Core/Src/main.cpp ****   hi2s2.Init.FullDuplexMode = I2S_FULLDUPLEXMODE_DISABLE;
 242:Core/Src/main.cpp ****   if (HAL_I2S_Init(&hi2s2) != HAL_OK)
 243:Core/Src/main.cpp ****   {
 244:Core/Src/main.cpp ****     Error_Handler();
 245:Core/Src/main.cpp ****   }
 246:Core/Src/main.cpp ****   /* USER CODE BEGIN I2S2_Init 2 */
 247:Core/Src/main.cpp **** 
 248:Core/Src/main.cpp ****   /* USER CODE END I2S2_Init 2 */
 249:Core/Src/main.cpp **** 
 250:Core/Src/main.cpp **** }
 251:Core/Src/main.cpp **** 
 252:Core/Src/main.cpp **** /**
 253:Core/Src/main.cpp ****   * @brief RTC Initialization Function
 254:Core/Src/main.cpp ****   * @param None
 255:Core/Src/main.cpp ****   * @retval None
 256:Core/Src/main.cpp ****   */
 257:Core/Src/main.cpp **** static void MX_RTC_Init(void)
 258:Core/Src/main.cpp **** {
ARM GAS  /tmp/ccgUkepq.s 			page 6


 259:Core/Src/main.cpp **** 
 260:Core/Src/main.cpp ****   /* USER CODE BEGIN RTC_Init 0 */
 261:Core/Src/main.cpp **** 
 262:Core/Src/main.cpp ****   /* USER CODE END RTC_Init 0 */
 263:Core/Src/main.cpp **** 
 264:Core/Src/main.cpp ****   RTC_TimeTypeDef sTime = {0};
 265:Core/Src/main.cpp ****   RTC_DateTypeDef sDate = {0};
 266:Core/Src/main.cpp ****   RTC_AlarmTypeDef sAlarm = {0};
 267:Core/Src/main.cpp **** 
 268:Core/Src/main.cpp ****   /* USER CODE BEGIN RTC_Init 1 */
 269:Core/Src/main.cpp **** 
 270:Core/Src/main.cpp ****   /* USER CODE END RTC_Init 1 */
 271:Core/Src/main.cpp **** 
 272:Core/Src/main.cpp ****   /** Initialize RTC Only
 273:Core/Src/main.cpp ****   */
 274:Core/Src/main.cpp ****   hrtc.Instance = RTC;
 275:Core/Src/main.cpp ****   hrtc.Init.HourFormat = RTC_HOURFORMAT_24;
 276:Core/Src/main.cpp ****   hrtc.Init.AsynchPrediv = 127;
 277:Core/Src/main.cpp ****   hrtc.Init.SynchPrediv = 255;
 278:Core/Src/main.cpp ****   hrtc.Init.OutPut = RTC_OUTPUT_ALARMA;
 279:Core/Src/main.cpp ****   hrtc.Init.OutPutPolarity = RTC_OUTPUT_POLARITY_LOW;
 280:Core/Src/main.cpp ****   hrtc.Init.OutPutType = RTC_OUTPUT_TYPE_PUSHPULL;
 281:Core/Src/main.cpp ****   if (HAL_RTC_Init(&hrtc) != HAL_OK)
 282:Core/Src/main.cpp ****   {
 283:Core/Src/main.cpp ****     Error_Handler();
 284:Core/Src/main.cpp ****   }
 285:Core/Src/main.cpp **** 
 286:Core/Src/main.cpp ****   /* USER CODE BEGIN Check_RTC_BKUP */
 287:Core/Src/main.cpp **** 
 288:Core/Src/main.cpp ****   /* USER CODE END Check_RTC_BKUP */
 289:Core/Src/main.cpp **** 
 290:Core/Src/main.cpp ****   /** Initialize RTC and set the Time and Date
 291:Core/Src/main.cpp ****   */
 292:Core/Src/main.cpp ****   sTime.Hours = 0x0;
 293:Core/Src/main.cpp ****   sTime.Minutes = 0x0;
 294:Core/Src/main.cpp ****   sTime.Seconds = 0x0;
 295:Core/Src/main.cpp ****   sTime.DayLightSaving = RTC_DAYLIGHTSAVING_NONE;
 296:Core/Src/main.cpp ****   sTime.StoreOperation = RTC_STOREOPERATION_RESET;
 297:Core/Src/main.cpp ****   if (HAL_RTC_SetTime(&hrtc, &sTime, RTC_FORMAT_BCD) != HAL_OK)
 298:Core/Src/main.cpp ****   {
 299:Core/Src/main.cpp ****     Error_Handler();
 300:Core/Src/main.cpp ****   }
 301:Core/Src/main.cpp ****   sDate.WeekDay = RTC_WEEKDAY_MONDAY;
 302:Core/Src/main.cpp ****   sDate.Month = RTC_MONTH_JANUARY;
 303:Core/Src/main.cpp ****   sDate.Date = 0x1;
 304:Core/Src/main.cpp ****   sDate.Year = 0x0;
 305:Core/Src/main.cpp **** 
 306:Core/Src/main.cpp ****   if (HAL_RTC_SetDate(&hrtc, &sDate, RTC_FORMAT_BCD) != HAL_OK)
 307:Core/Src/main.cpp ****   {
 308:Core/Src/main.cpp ****     Error_Handler();
 309:Core/Src/main.cpp ****   }
 310:Core/Src/main.cpp **** 
 311:Core/Src/main.cpp ****   /** Enable the Alarm A
 312:Core/Src/main.cpp ****   */
 313:Core/Src/main.cpp ****   sAlarm.AlarmTime.Hours = 0x0;
 314:Core/Src/main.cpp ****   sAlarm.AlarmTime.Minutes = 0x0;
 315:Core/Src/main.cpp ****   sAlarm.AlarmTime.Seconds = 0x10;
ARM GAS  /tmp/ccgUkepq.s 			page 7


 316:Core/Src/main.cpp ****   sAlarm.AlarmTime.SubSeconds = 0x0;
 317:Core/Src/main.cpp ****   sAlarm.AlarmTime.DayLightSaving = RTC_DAYLIGHTSAVING_NONE;
 318:Core/Src/main.cpp ****   sAlarm.AlarmTime.StoreOperation = RTC_STOREOPERATION_RESET;
 319:Core/Src/main.cpp ****   sAlarm.AlarmMask = RTC_ALARMMASK_DATEWEEKDAY|RTC_ALARMMASK_HOURS
 320:Core/Src/main.cpp ****                               |RTC_ALARMMASK_MINUTES;
 321:Core/Src/main.cpp ****   sAlarm.AlarmSubSecondMask = RTC_ALARMSUBSECONDMASK_ALL;
 322:Core/Src/main.cpp ****   sAlarm.AlarmDateWeekDaySel = RTC_ALARMDATEWEEKDAYSEL_DATE;
 323:Core/Src/main.cpp ****   sAlarm.AlarmDateWeekDay = 0x1;
 324:Core/Src/main.cpp ****   sAlarm.Alarm = RTC_ALARM_A;
 325:Core/Src/main.cpp ****   if (HAL_RTC_SetAlarm_IT(&hrtc, &sAlarm, RTC_FORMAT_BCD) != HAL_OK)
 326:Core/Src/main.cpp ****   {
 327:Core/Src/main.cpp ****     Error_Handler();
 328:Core/Src/main.cpp ****   }
 329:Core/Src/main.cpp ****   /* USER CODE BEGIN RTC_Init 2 */
 330:Core/Src/main.cpp **** 
 331:Core/Src/main.cpp ****   /* USER CODE END RTC_Init 2 */
 332:Core/Src/main.cpp **** 
 333:Core/Src/main.cpp **** }
 334:Core/Src/main.cpp **** 
 335:Core/Src/main.cpp **** /**
 336:Core/Src/main.cpp ****   * @brief SPI1 Initialization Function
 337:Core/Src/main.cpp ****   * @param None
 338:Core/Src/main.cpp ****   * @retval None
 339:Core/Src/main.cpp ****   */
 340:Core/Src/main.cpp **** static void MX_SPI1_Init(void)
 341:Core/Src/main.cpp **** {
 342:Core/Src/main.cpp **** 
 343:Core/Src/main.cpp ****   /* USER CODE BEGIN SPI1_Init 0 */
 344:Core/Src/main.cpp **** 
 345:Core/Src/main.cpp ****   /* USER CODE END SPI1_Init 0 */
 346:Core/Src/main.cpp **** 
 347:Core/Src/main.cpp ****   /* USER CODE BEGIN SPI1_Init 1 */
 348:Core/Src/main.cpp **** 
 349:Core/Src/main.cpp ****   /* USER CODE END SPI1_Init 1 */
 350:Core/Src/main.cpp ****   /* SPI1 parameter configuration*/
 351:Core/Src/main.cpp ****   hspi1.Instance = SPI1;
 352:Core/Src/main.cpp ****   hspi1.Init.Mode = SPI_MODE_MASTER;
 353:Core/Src/main.cpp ****   hspi1.Init.Direction = SPI_DIRECTION_2LINES;
 354:Core/Src/main.cpp ****   hspi1.Init.DataSize = SPI_DATASIZE_8BIT;
 355:Core/Src/main.cpp ****   hspi1.Init.CLKPolarity = SPI_POLARITY_LOW;
 356:Core/Src/main.cpp ****   hspi1.Init.CLKPhase = SPI_PHASE_1EDGE;
 357:Core/Src/main.cpp ****   hspi1.Init.NSS = SPI_NSS_SOFT;
 358:Core/Src/main.cpp ****   hspi1.Init.BaudRatePrescaler = SPI_BAUDRATEPRESCALER_2;
 359:Core/Src/main.cpp ****   hspi1.Init.FirstBit = SPI_FIRSTBIT_MSB;
 360:Core/Src/main.cpp ****   hspi1.Init.TIMode = SPI_TIMODE_DISABLE;
 361:Core/Src/main.cpp ****   hspi1.Init.CRCCalculation = SPI_CRCCALCULATION_DISABLE;
 362:Core/Src/main.cpp ****   hspi1.Init.CRCPolynomial = 10;
 363:Core/Src/main.cpp ****   if (HAL_SPI_Init(&hspi1) != HAL_OK)
 364:Core/Src/main.cpp ****   {
 365:Core/Src/main.cpp ****     Error_Handler();
 366:Core/Src/main.cpp ****   }
 367:Core/Src/main.cpp ****   /* USER CODE BEGIN SPI1_Init 2 */
 368:Core/Src/main.cpp **** 
 369:Core/Src/main.cpp ****   /* USER CODE END SPI1_Init 2 */
 370:Core/Src/main.cpp **** 
 371:Core/Src/main.cpp **** }
 372:Core/Src/main.cpp **** 
ARM GAS  /tmp/ccgUkepq.s 			page 8


 373:Core/Src/main.cpp **** /**
 374:Core/Src/main.cpp ****   * @brief USART1 Initialization Function
 375:Core/Src/main.cpp ****   * @param None
 376:Core/Src/main.cpp ****   * @retval None
 377:Core/Src/main.cpp ****   */
 378:Core/Src/main.cpp **** static void MX_USART1_UART_Init(void)
 379:Core/Src/main.cpp **** {
 380:Core/Src/main.cpp **** 
 381:Core/Src/main.cpp ****   /* USER CODE BEGIN USART1_Init 0 */
 382:Core/Src/main.cpp **** 
 383:Core/Src/main.cpp ****   /* USER CODE END USART1_Init 0 */
 384:Core/Src/main.cpp **** 
 385:Core/Src/main.cpp ****   /* USER CODE BEGIN USART1_Init 1 */
 386:Core/Src/main.cpp **** 
 387:Core/Src/main.cpp ****   /* USER CODE END USART1_Init 1 */
 388:Core/Src/main.cpp ****   huart1.Instance = USART1;
 389:Core/Src/main.cpp ****   huart1.Init.BaudRate = 115200;
 390:Core/Src/main.cpp ****   huart1.Init.WordLength = UART_WORDLENGTH_8B;
 391:Core/Src/main.cpp ****   huart1.Init.StopBits = UART_STOPBITS_1;
 392:Core/Src/main.cpp ****   huart1.Init.Parity = UART_PARITY_NONE;
 393:Core/Src/main.cpp ****   huart1.Init.Mode = UART_MODE_TX_RX;
 394:Core/Src/main.cpp ****   huart1.Init.HwFlowCtl = UART_HWCONTROL_RTS_CTS;
 395:Core/Src/main.cpp ****   huart1.Init.OverSampling = UART_OVERSAMPLING_16;
 396:Core/Src/main.cpp ****   if (HAL_UART_Init(&huart1) != HAL_OK)
 397:Core/Src/main.cpp ****   {
 398:Core/Src/main.cpp ****     Error_Handler();
 399:Core/Src/main.cpp ****   }
 400:Core/Src/main.cpp ****   /* USER CODE BEGIN USART1_Init 2 */
 401:Core/Src/main.cpp **** 
 402:Core/Src/main.cpp ****   /* USER CODE END USART1_Init 2 */
 403:Core/Src/main.cpp **** 
 404:Core/Src/main.cpp **** }
 405:Core/Src/main.cpp **** 
 406:Core/Src/main.cpp **** /**
 407:Core/Src/main.cpp ****   * Enable DMA controller clock
 408:Core/Src/main.cpp ****   */
 409:Core/Src/main.cpp **** static void MX_DMA_Init(void)
 410:Core/Src/main.cpp **** {
 411:Core/Src/main.cpp **** 
 412:Core/Src/main.cpp ****   /* DMA controller clock enable */
 413:Core/Src/main.cpp ****   __HAL_RCC_DMA1_CLK_ENABLE();
 414:Core/Src/main.cpp **** 
 415:Core/Src/main.cpp ****   /* DMA interrupt init */
 416:Core/Src/main.cpp ****   /* DMA1_Stream4_IRQn interrupt configuration */
 417:Core/Src/main.cpp ****   HAL_NVIC_SetPriority(DMA1_Stream4_IRQn, 0, 0);
 418:Core/Src/main.cpp ****   HAL_NVIC_EnableIRQ(DMA1_Stream4_IRQn);
 419:Core/Src/main.cpp **** 
 420:Core/Src/main.cpp **** }
 421:Core/Src/main.cpp **** 
 422:Core/Src/main.cpp **** /**
 423:Core/Src/main.cpp ****   * @brief GPIO Initialization Function
 424:Core/Src/main.cpp ****   * @param None
 425:Core/Src/main.cpp ****   * @retval None
 426:Core/Src/main.cpp ****   */
 427:Core/Src/main.cpp **** static void MX_GPIO_Init(void)
 428:Core/Src/main.cpp **** {
  29              		.loc 1 428 1 view -0
ARM GAS  /tmp/ccgUkepq.s 			page 9


  30              		.cfi_startproc
  31              		@ args = 0, pretend = 0, frame = 40
  32              		@ frame_needed = 0, uses_anonymous_args = 0
  33 0000 F0B5     		push	{r4, r5, r6, r7, lr}
  34              		.save {r4, r5, r6, r7, lr}
  35              		.cfi_def_cfa_offset 20
  36              		.cfi_offset 4, -20
  37              		.cfi_offset 5, -16
  38              		.cfi_offset 6, -12
  39              		.cfi_offset 7, -8
  40              		.cfi_offset 14, -4
  41              		.pad #44
  42 0002 8BB0     		sub	sp, sp, #44
  43              		.cfi_def_cfa_offset 64
 429:Core/Src/main.cpp ****   GPIO_InitTypeDef GPIO_InitStruct = {0};
  44              		.loc 1 429 3 view .LVU1
  45              		.loc 1 429 20 is_stmt 0 view .LVU2
  46 0004 0024     		movs	r4, #0
  47 0006 0594     		str	r4, [sp, #20]
  48 0008 0694     		str	r4, [sp, #24]
  49 000a 0794     		str	r4, [sp, #28]
  50 000c 0894     		str	r4, [sp, #32]
  51 000e 0994     		str	r4, [sp, #36]
 430:Core/Src/main.cpp **** /* USER CODE BEGIN MX_GPIO_Init_1 */
 431:Core/Src/main.cpp **** /* USER CODE END MX_GPIO_Init_1 */
 432:Core/Src/main.cpp **** 
 433:Core/Src/main.cpp ****   /* GPIO Ports Clock Enable */
 434:Core/Src/main.cpp ****   __HAL_RCC_GPIOC_CLK_ENABLE();
  52              		.loc 1 434 3 is_stmt 1 view .LVU3
  53              	.LBB4:
  54              		.loc 1 434 3 view .LVU4
  55 0010 0194     		str	r4, [sp, #4]
  56              		.loc 1 434 3 view .LVU5
  57 0012 2B4B     		ldr	r3, .L3
  58 0014 1A6B     		ldr	r2, [r3, #48]
  59 0016 42F00402 		orr	r2, r2, #4
  60 001a 1A63     		str	r2, [r3, #48]
  61              		.loc 1 434 3 view .LVU6
  62 001c 1A6B     		ldr	r2, [r3, #48]
  63 001e 02F00402 		and	r2, r2, #4
  64 0022 0192     		str	r2, [sp, #4]
  65              		.loc 1 434 3 view .LVU7
  66 0024 019A     		ldr	r2, [sp, #4]
  67              	.LBE4:
  68              		.loc 1 434 3 view .LVU8
 435:Core/Src/main.cpp ****   __HAL_RCC_GPIOH_CLK_ENABLE();
  69              		.loc 1 435 3 view .LVU9
  70              	.LBB5:
  71              		.loc 1 435 3 view .LVU10
  72 0026 0294     		str	r4, [sp, #8]
  73              		.loc 1 435 3 view .LVU11
  74 0028 1A6B     		ldr	r2, [r3, #48]
  75 002a 42F08002 		orr	r2, r2, #128
  76 002e 1A63     		str	r2, [r3, #48]
  77              		.loc 1 435 3 view .LVU12
  78 0030 1A6B     		ldr	r2, [r3, #48]
  79 0032 02F08002 		and	r2, r2, #128
ARM GAS  /tmp/ccgUkepq.s 			page 10


  80 0036 0292     		str	r2, [sp, #8]
  81              		.loc 1 435 3 view .LVU13
  82 0038 029A     		ldr	r2, [sp, #8]
  83              	.LBE5:
  84              		.loc 1 435 3 view .LVU14
 436:Core/Src/main.cpp ****   __HAL_RCC_GPIOA_CLK_ENABLE();
  85              		.loc 1 436 3 view .LVU15
  86              	.LBB6:
  87              		.loc 1 436 3 view .LVU16
  88 003a 0394     		str	r4, [sp, #12]
  89              		.loc 1 436 3 view .LVU17
  90 003c 1A6B     		ldr	r2, [r3, #48]
  91 003e 42F00102 		orr	r2, r2, #1
  92 0042 1A63     		str	r2, [r3, #48]
  93              		.loc 1 436 3 view .LVU18
  94 0044 1A6B     		ldr	r2, [r3, #48]
  95 0046 02F00102 		and	r2, r2, #1
  96 004a 0392     		str	r2, [sp, #12]
  97              		.loc 1 436 3 view .LVU19
  98 004c 039A     		ldr	r2, [sp, #12]
  99              	.LBE6:
 100              		.loc 1 436 3 view .LVU20
 437:Core/Src/main.cpp ****   __HAL_RCC_GPIOB_CLK_ENABLE();
 101              		.loc 1 437 3 view .LVU21
 102              	.LBB7:
 103              		.loc 1 437 3 view .LVU22
 104 004e 0494     		str	r4, [sp, #16]
 105              		.loc 1 437 3 view .LVU23
 106 0050 1A6B     		ldr	r2, [r3, #48]
 107 0052 42F00202 		orr	r2, r2, #2
 108 0056 1A63     		str	r2, [r3, #48]
 109              		.loc 1 437 3 view .LVU24
 110 0058 1B6B     		ldr	r3, [r3, #48]
 111 005a 03F00203 		and	r3, r3, #2
 112 005e 0493     		str	r3, [sp, #16]
 113              		.loc 1 437 3 view .LVU25
 114 0060 049B     		ldr	r3, [sp, #16]
 115              	.LBE7:
 116              		.loc 1 437 3 view .LVU26
 438:Core/Src/main.cpp **** 
 439:Core/Src/main.cpp ****   /*Configure GPIO pin Output Level */
 440:Core/Src/main.cpp ****   HAL_GPIO_WritePin(GPIOA, ld_heartbeat_Pin|pwr_eeprom_Pin|write_eeprom_Pin, GPIO_PIN_RESET);
 117              		.loc 1 440 3 view .LVU27
 118              		.loc 1 440 20 is_stmt 0 view .LVU28
 119 0062 184D     		ldr	r5, .L3+4
 120 0064 2246     		mov	r2, r4
 121 0066 1A21     		movs	r1, #26
 122 0068 2846     		mov	r0, r5
 123 006a FFF7FEFF 		bl	HAL_GPIO_WritePin
 124              	.LVL0:
 441:Core/Src/main.cpp **** 
 442:Core/Src/main.cpp ****   /*Configure GPIO pin Output Level */
 443:Core/Src/main.cpp ****   HAL_GPIO_WritePin(GPIOB, hold_eeprom_Pin|pwr_aud_Pin, GPIO_PIN_RESET);
 125              		.loc 1 443 3 is_stmt 1 view .LVU29
 126              		.loc 1 443 20 is_stmt 0 view .LVU30
 127 006e 164E     		ldr	r6, .L3+8
 128 0070 2246     		mov	r2, r4
ARM GAS  /tmp/ccgUkepq.s 			page 11


 129 0072 40F20141 		movw	r1, #1025
 130 0076 3046     		mov	r0, r6
 131 0078 FFF7FEFF 		bl	HAL_GPIO_WritePin
 132              	.LVL1:
 444:Core/Src/main.cpp **** 
 445:Core/Src/main.cpp ****   /*Configure GPIO pins : ld_heartbeat_Pin pwr_eeprom_Pin write_eeprom_Pin */
 446:Core/Src/main.cpp ****   GPIO_InitStruct.Pin = ld_heartbeat_Pin|pwr_eeprom_Pin|write_eeprom_Pin;
 133              		.loc 1 446 3 is_stmt 1 view .LVU31
 134              		.loc 1 446 23 is_stmt 0 view .LVU32
 135 007c 1A23     		movs	r3, #26
 136 007e 0593     		str	r3, [sp, #20]
 447:Core/Src/main.cpp ****   GPIO_InitStruct.Mode = GPIO_MODE_OUTPUT_PP;
 137              		.loc 1 447 3 is_stmt 1 view .LVU33
 138              		.loc 1 447 24 is_stmt 0 view .LVU34
 139 0080 0127     		movs	r7, #1
 140 0082 0697     		str	r7, [sp, #24]
 448:Core/Src/main.cpp ****   GPIO_InitStruct.Pull = GPIO_NOPULL;
 141              		.loc 1 448 3 is_stmt 1 view .LVU35
 142              		.loc 1 448 24 is_stmt 0 view .LVU36
 143 0084 0794     		str	r4, [sp, #28]
 449:Core/Src/main.cpp ****   GPIO_InitStruct.Speed = GPIO_SPEED_FREQ_LOW;
 144              		.loc 1 449 3 is_stmt 1 view .LVU37
 145              		.loc 1 449 25 is_stmt 0 view .LVU38
 146 0086 0894     		str	r4, [sp, #32]
 450:Core/Src/main.cpp ****   HAL_GPIO_Init(GPIOA, &GPIO_InitStruct);
 147              		.loc 1 450 3 is_stmt 1 view .LVU39
 148              		.loc 1 450 16 is_stmt 0 view .LVU40
 149 0088 05A9     		add	r1, sp, #20
 150 008a 2846     		mov	r0, r5
 151 008c FFF7FEFF 		bl	HAL_GPIO_Init
 152              	.LVL2:
 451:Core/Src/main.cpp **** 
 452:Core/Src/main.cpp ****   /*Configure GPIO pins : hold_eeprom_Pin pwr_aud_Pin */
 453:Core/Src/main.cpp ****   GPIO_InitStruct.Pin = hold_eeprom_Pin|pwr_aud_Pin;
 153              		.loc 1 453 3 is_stmt 1 view .LVU41
 154              		.loc 1 453 23 is_stmt 0 view .LVU42
 155 0090 40F20143 		movw	r3, #1025
 156 0094 0593     		str	r3, [sp, #20]
 454:Core/Src/main.cpp ****   GPIO_InitStruct.Mode = GPIO_MODE_OUTPUT_PP;
 157              		.loc 1 454 3 is_stmt 1 view .LVU43
 158              		.loc 1 454 24 is_stmt 0 view .LVU44
 159 0096 0697     		str	r7, [sp, #24]
 455:Core/Src/main.cpp ****   GPIO_InitStruct.Pull = GPIO_NOPULL;
 160              		.loc 1 455 3 is_stmt 1 view .LVU45
 161              		.loc 1 455 24 is_stmt 0 view .LVU46
 162 0098 0794     		str	r4, [sp, #28]
 456:Core/Src/main.cpp ****   GPIO_InitStruct.Speed = GPIO_SPEED_FREQ_LOW;
 163              		.loc 1 456 3 is_stmt 1 view .LVU47
 164              		.loc 1 456 25 is_stmt 0 view .LVU48
 165 009a 0894     		str	r4, [sp, #32]
 457:Core/Src/main.cpp ****   HAL_GPIO_Init(GPIOB, &GPIO_InitStruct);
 166              		.loc 1 457 3 is_stmt 1 view .LVU49
 167              		.loc 1 457 16 is_stmt 0 view .LVU50
 168 009c 05A9     		add	r1, sp, #20
 169 009e 3046     		mov	r0, r6
 170 00a0 FFF7FEFF 		bl	HAL_GPIO_Init
 171              	.LVL3:
ARM GAS  /tmp/ccgUkepq.s 			page 12


 458:Core/Src/main.cpp **** 
 459:Core/Src/main.cpp ****   /*Configure GPIO pin : PA8 */
 460:Core/Src/main.cpp ****   GPIO_InitStruct.Pin = GPIO_PIN_8;
 172              		.loc 1 460 3 is_stmt 1 view .LVU51
 173              		.loc 1 460 23 is_stmt 0 view .LVU52
 174 00a4 4FF48073 		mov	r3, #256
 175 00a8 0593     		str	r3, [sp, #20]
 461:Core/Src/main.cpp ****   GPIO_InitStruct.Mode = GPIO_MODE_AF_PP;
 176              		.loc 1 461 3 is_stmt 1 view .LVU53
 177              		.loc 1 461 24 is_stmt 0 view .LVU54
 178 00aa 0223     		movs	r3, #2
 179 00ac 0693     		str	r3, [sp, #24]
 462:Core/Src/main.cpp ****   GPIO_InitStruct.Pull = GPIO_NOPULL;
 180              		.loc 1 462 3 is_stmt 1 view .LVU55
 181              		.loc 1 462 24 is_stmt 0 view .LVU56
 182 00ae 0794     		str	r4, [sp, #28]
 463:Core/Src/main.cpp ****   GPIO_InitStruct.Speed = GPIO_SPEED_FREQ_LOW;
 183              		.loc 1 463 3 is_stmt 1 view .LVU57
 184              		.loc 1 463 25 is_stmt 0 view .LVU58
 185 00b0 0894     		str	r4, [sp, #32]
 464:Core/Src/main.cpp ****   GPIO_InitStruct.Alternate = GPIO_AF0_MCO;
 186              		.loc 1 464 3 is_stmt 1 view .LVU59
 187              		.loc 1 464 29 is_stmt 0 view .LVU60
 188 00b2 0994     		str	r4, [sp, #36]
 465:Core/Src/main.cpp ****   HAL_GPIO_Init(GPIOA, &GPIO_InitStruct);
 189              		.loc 1 465 3 is_stmt 1 view .LVU61
 190              		.loc 1 465 16 is_stmt 0 view .LVU62
 191 00b4 05A9     		add	r1, sp, #20
 192 00b6 2846     		mov	r0, r5
 193 00b8 FFF7FEFF 		bl	HAL_GPIO_Init
 194              	.LVL4:
 466:Core/Src/main.cpp **** 
 467:Core/Src/main.cpp **** /* USER CODE BEGIN MX_GPIO_Init_2 */
 468:Core/Src/main.cpp **** /* USER CODE END MX_GPIO_Init_2 */
 469:Core/Src/main.cpp **** }
 195              		.loc 1 469 1 view .LVU63
 196 00bc 0BB0     		add	sp, sp, #44
 197              		.cfi_def_cfa_offset 20
 198              		@ sp needed
 199 00be F0BD     		pop	{r4, r5, r6, r7, pc}
 200              	.L4:
 201              		.align	2
 202              	.L3:
 203 00c0 00380240 		.word	1073887232
 204 00c4 00000240 		.word	1073872896
 205 00c8 00040240 		.word	1073873920
 206              		.cfi_endproc
 207              	.LFE593:
 208              		.fnend
 210              		.section	.text._ZL11MX_DMA_Initv,"ax",%progbits
 211              		.align	1
 212              		.syntax unified
 213              		.thumb
 214              		.thumb_func
 216              	_ZL11MX_DMA_Initv:
 217              		.fnstart
 218              	.LFB592:
ARM GAS  /tmp/ccgUkepq.s 			page 13


 410:Core/Src/main.cpp **** 
 219              		.loc 1 410 1 is_stmt 1 view -0
 220              		.cfi_startproc
 221              		@ args = 0, pretend = 0, frame = 8
 222              		@ frame_needed = 0, uses_anonymous_args = 0
 223 0000 00B5     		push	{lr}
 224              		.save {lr}
 225              		.cfi_def_cfa_offset 4
 226              		.cfi_offset 14, -4
 227              		.pad #12
 228 0002 83B0     		sub	sp, sp, #12
 229              		.cfi_def_cfa_offset 16
 413:Core/Src/main.cpp **** 
 230              		.loc 1 413 3 view .LVU65
 231              	.LBB8:
 413:Core/Src/main.cpp **** 
 232              		.loc 1 413 3 view .LVU66
 233 0004 0021     		movs	r1, #0
 234 0006 0191     		str	r1, [sp, #4]
 413:Core/Src/main.cpp **** 
 235              		.loc 1 413 3 view .LVU67
 236 0008 094B     		ldr	r3, .L7
 237 000a 1A6B     		ldr	r2, [r3, #48]
 238 000c 42F40012 		orr	r2, r2, #2097152
 239 0010 1A63     		str	r2, [r3, #48]
 413:Core/Src/main.cpp **** 
 240              		.loc 1 413 3 view .LVU68
 241 0012 1B6B     		ldr	r3, [r3, #48]
 242 0014 03F40013 		and	r3, r3, #2097152
 243 0018 0193     		str	r3, [sp, #4]
 413:Core/Src/main.cpp **** 
 244              		.loc 1 413 3 view .LVU69
 245 001a 019B     		ldr	r3, [sp, #4]
 246              	.LBE8:
 413:Core/Src/main.cpp **** 
 247              		.loc 1 413 3 view .LVU70
 417:Core/Src/main.cpp ****   HAL_NVIC_EnableIRQ(DMA1_Stream4_IRQn);
 248              		.loc 1 417 3 view .LVU71
 417:Core/Src/main.cpp ****   HAL_NVIC_EnableIRQ(DMA1_Stream4_IRQn);
 249              		.loc 1 417 23 is_stmt 0 view .LVU72
 250 001c 0A46     		mov	r2, r1
 251 001e 0F20     		movs	r0, #15
 252 0020 FFF7FEFF 		bl	HAL_NVIC_SetPriority
 253              	.LVL5:
 418:Core/Src/main.cpp **** 
 254              		.loc 1 418 3 is_stmt 1 view .LVU73
 418:Core/Src/main.cpp **** 
 255              		.loc 1 418 21 is_stmt 0 view .LVU74
 256 0024 0F20     		movs	r0, #15
 257 0026 FFF7FEFF 		bl	HAL_NVIC_EnableIRQ
 258              	.LVL6:
 420:Core/Src/main.cpp **** 
 259              		.loc 1 420 1 view .LVU75
 260 002a 03B0     		add	sp, sp, #12
 261              		.cfi_def_cfa_offset 4
 262              		@ sp needed
 263 002c 5DF804FB 		ldr	pc, [sp], #4
ARM GAS  /tmp/ccgUkepq.s 			page 14


 264              	.L8:
 265              		.align	2
 266              	.L7:
 267 0030 00380240 		.word	1073887232
 268              		.cfi_endproc
 269              	.LFE592:
 270              		.fnend
 272              		.section	.text._Z41__static_initialization_and_destruction_0v,"ax",%progbits
 273              		.align	1
 274              		.syntax unified
 275              		.thumb
 276              		.thumb_func
 278              	_Z41__static_initialization_and_destruction_0v:
 279              		.fnstart
 280              	.LFB597:
 470:Core/Src/main.cpp **** 
 471:Core/Src/main.cpp **** /* USER CODE BEGIN 4 */
 472:Core/Src/main.cpp **** 
 473:Core/Src/main.cpp **** extern "C" void HAL_I2S_TxCpltCallback(I2S_HandleTypeDef *hi2s) {
 474:Core/Src/main.cpp ****     Handlers[spi_txcplt_irqn]->irq();
 475:Core/Src/main.cpp **** }
 476:Core/Src/main.cpp **** 
 477:Core/Src/main.cpp **** void register_handler(int irq_n, InterruptHandler* handler) {
 478:Core/Src/main.cpp ****     Handlers[irq_n] = handler;
 479:Core/Src/main.cpp **** }
 480:Core/Src/main.cpp **** 
 481:Core/Src/main.cpp **** /* USER CODE END 4 */
 482:Core/Src/main.cpp **** 
 483:Core/Src/main.cpp **** /**
 484:Core/Src/main.cpp ****   * @brief  This function is executed in case of error occurrence.
 485:Core/Src/main.cpp ****   * @retval None
 486:Core/Src/main.cpp ****   */
 487:Core/Src/main.cpp **** void Error_Handler(void)
 488:Core/Src/main.cpp **** {
 489:Core/Src/main.cpp ****   /* USER CODE BEGIN Error_Handler_Debug */
 490:Core/Src/main.cpp ****   /* User can add his own implementation to report the HAL error return state */
 491:Core/Src/main.cpp ****   __disable_irq();
 492:Core/Src/main.cpp ****   while (1)
 493:Core/Src/main.cpp ****   {
 494:Core/Src/main.cpp ****   }
 495:Core/Src/main.cpp ****   /* USER CODE END Error_Handler_Debug */
 496:Core/Src/main.cpp **** }
 281              		.loc 1 496 1 is_stmt 1 view -0
 282              		.cfi_startproc
 283              		@ args = 0, pretend = 0, frame = 0
 284              		@ frame_needed = 0, uses_anonymous_args = 0
 285 0000 08B5     		push	{r3, lr}
 286              		.cfi_def_cfa_offset 8
 287              		.cfi_offset 3, -8
 288              		.cfi_offset 14, -4
  59:Core/Src/main.cpp **** 
 289              		.loc 1 59 23 is_stmt 0 view .LVU77
 290 0002 0249     		ldr	r1, .L11
 291 0004 0248     		ldr	r0, .L11+4
 292 0006 FFF7FEFF 		bl	_ZN9i2sObjectC1ER19__I2S_HandleTypeDef
 293              	.LVL7:
 294              		.loc 1 496 1 view .LVU78
ARM GAS  /tmp/ccgUkepq.s 			page 15


 295 000a 08BD     		pop	{r3, pc}
 296              	.L12:
 297              		.align	2
 298              	.L11:
 299 000c 00000000 		.word	hi2s2
 300 0010 00000000 		.word	i2sObj
 301              		.cfi_endproc
 302              	.LFE597:
 303              		.cantunwind
 304              		.fnend
 306              		.section	.text.HAL_I2S_TxCpltCallback,"ax",%progbits
 307              		.align	1
 308              		.global	HAL_I2S_TxCpltCallback
 309              		.syntax unified
 310              		.thumb
 311              		.thumb_func
 313              	HAL_I2S_TxCpltCallback:
 314              		.fnstart
 315              	.LVL8:
 316              	.LFB594:
 473:Core/Src/main.cpp ****     Handlers[spi_txcplt_irqn]->irq();
 317              		.loc 1 473 65 is_stmt 1 view -0
 318              		.cfi_startproc
 319              		@ args = 0, pretend = 0, frame = 0
 320              		@ frame_needed = 0, uses_anonymous_args = 0
 473:Core/Src/main.cpp ****     Handlers[spi_txcplt_irqn]->irq();
 321              		.loc 1 473 65 is_stmt 0 view .LVU80
 322 0000 08B5     		push	{r3, lr}
 323              		.save {r3, lr}
 324              		.cfi_def_cfa_offset 8
 325              		.cfi_offset 3, -8
 326              		.cfi_offset 14, -4
 474:Core/Src/main.cpp **** }
 327              		.loc 1 474 5 is_stmt 1 view .LVU81
 474:Core/Src/main.cpp **** }
 328              		.loc 1 474 29 is_stmt 0 view .LVU82
 329 0002 034B     		ldr	r3, .L15
 330 0004 1868     		ldr	r0, [r3]
 331              	.LVL9:
 474:Core/Src/main.cpp **** }
 332              		.loc 1 474 35 view .LVU83
 333 0006 0368     		ldr	r3, [r0]
 334 0008 1B68     		ldr	r3, [r3]
 335 000a 9847     		blx	r3
 336              	.LVL10:
 475:Core/Src/main.cpp **** 
 337              		.loc 1 475 1 view .LVU84
 338 000c 08BD     		pop	{r3, pc}
 339              	.L16:
 340 000e 00BF     		.align	2
 341              	.L15:
 342 0010 00000000 		.word	_ZL8Handlers
 343              		.cfi_endproc
 344              	.LFE594:
 345              		.fnend
 347              		.section	.text._Z16register_handleriP16InterruptHandler,"ax",%progbits
 348              		.align	1
ARM GAS  /tmp/ccgUkepq.s 			page 16


 349              		.global	_Z16register_handleriP16InterruptHandler
 350              		.syntax unified
 351              		.thumb
 352              		.thumb_func
 354              	_Z16register_handleriP16InterruptHandler:
 355              		.fnstart
 356              	.LVL11:
 357              	.LFB595:
 477:Core/Src/main.cpp ****     Handlers[irq_n] = handler;
 358              		.loc 1 477 61 is_stmt 1 view -0
 359              		.cfi_startproc
 360              		@ args = 0, pretend = 0, frame = 0
 361              		@ frame_needed = 0, uses_anonymous_args = 0
 362              		@ link register save eliminated.
 478:Core/Src/main.cpp **** }
 363              		.loc 1 478 5 view .LVU86
 478:Core/Src/main.cpp **** }
 364              		.loc 1 478 21 is_stmt 0 view .LVU87
 365 0000 014B     		ldr	r3, .L18
 366 0002 43F82010 		str	r1, [r3, r0, lsl #2]
 479:Core/Src/main.cpp **** 
 367              		.loc 1 479 1 view .LVU88
 368 0006 7047     		bx	lr
 369              	.L19:
 370              		.align	2
 371              	.L18:
 372 0008 00000000 		.word	_ZL8Handlers
 373              		.cfi_endproc
 374              	.LFE595:
 375              		.cantunwind
 376              		.fnend
 378              		.section	.text.Error_Handler,"ax",%progbits
 379              		.align	1
 380              		.global	Error_Handler
 381              		.syntax unified
 382              		.thumb
 383              		.thumb_func
 385              	Error_Handler:
 386              		.fnstart
 387              	.LFB596:
 488:Core/Src/main.cpp ****   /* USER CODE BEGIN Error_Handler_Debug */
 388              		.loc 1 488 1 is_stmt 1 view -0
 389              		.cfi_startproc
 390              		@ Volatile: function does not return.
 391              		@ args = 0, pretend = 0, frame = 0
 392              		@ frame_needed = 0, uses_anonymous_args = 0
 393              		@ link register save eliminated.
 491:Core/Src/main.cpp ****   while (1)
 394              		.loc 1 491 3 view .LVU90
 395              	.LBB9:
 396              	.LBI9:
 397              		.file 2 "Drivers/CMSIS/Include/cmsis_gcc.h"
   1:Drivers/CMSIS/Include/cmsis_gcc.h **** /**************************************************************************//**
   2:Drivers/CMSIS/Include/cmsis_gcc.h ****  * @file     cmsis_gcc.h
   3:Drivers/CMSIS/Include/cmsis_gcc.h ****  * @brief    CMSIS compiler GCC header file
   4:Drivers/CMSIS/Include/cmsis_gcc.h ****  * @version  V5.0.4
   5:Drivers/CMSIS/Include/cmsis_gcc.h ****  * @date     09. April 2018
ARM GAS  /tmp/ccgUkepq.s 			page 17


   6:Drivers/CMSIS/Include/cmsis_gcc.h ****  ******************************************************************************/
   7:Drivers/CMSIS/Include/cmsis_gcc.h **** /*
   8:Drivers/CMSIS/Include/cmsis_gcc.h ****  * Copyright (c) 2009-2018 Arm Limited. All rights reserved.
   9:Drivers/CMSIS/Include/cmsis_gcc.h ****  *
  10:Drivers/CMSIS/Include/cmsis_gcc.h ****  * SPDX-License-Identifier: Apache-2.0
  11:Drivers/CMSIS/Include/cmsis_gcc.h ****  *
  12:Drivers/CMSIS/Include/cmsis_gcc.h ****  * Licensed under the Apache License, Version 2.0 (the License); you may
  13:Drivers/CMSIS/Include/cmsis_gcc.h ****  * not use this file except in compliance with the License.
  14:Drivers/CMSIS/Include/cmsis_gcc.h ****  * You may obtain a copy of the License at
  15:Drivers/CMSIS/Include/cmsis_gcc.h ****  *
  16:Drivers/CMSIS/Include/cmsis_gcc.h ****  * www.apache.org/licenses/LICENSE-2.0
  17:Drivers/CMSIS/Include/cmsis_gcc.h ****  *
  18:Drivers/CMSIS/Include/cmsis_gcc.h ****  * Unless required by applicable law or agreed to in writing, software
  19:Drivers/CMSIS/Include/cmsis_gcc.h ****  * distributed under the License is distributed on an AS IS BASIS, WITHOUT
  20:Drivers/CMSIS/Include/cmsis_gcc.h ****  * WARRANTIES OR CONDITIONS OF ANY KIND, either express or implied.
  21:Drivers/CMSIS/Include/cmsis_gcc.h ****  * See the License for the specific language governing permissions and
  22:Drivers/CMSIS/Include/cmsis_gcc.h ****  * limitations under the License.
  23:Drivers/CMSIS/Include/cmsis_gcc.h ****  */
  24:Drivers/CMSIS/Include/cmsis_gcc.h **** 
  25:Drivers/CMSIS/Include/cmsis_gcc.h **** #ifndef __CMSIS_GCC_H
  26:Drivers/CMSIS/Include/cmsis_gcc.h **** #define __CMSIS_GCC_H
  27:Drivers/CMSIS/Include/cmsis_gcc.h **** 
  28:Drivers/CMSIS/Include/cmsis_gcc.h **** /* ignore some GCC warnings */
  29:Drivers/CMSIS/Include/cmsis_gcc.h **** #pragma GCC diagnostic push
  30:Drivers/CMSIS/Include/cmsis_gcc.h **** #pragma GCC diagnostic ignored "-Wsign-conversion"
  31:Drivers/CMSIS/Include/cmsis_gcc.h **** #pragma GCC diagnostic ignored "-Wconversion"
  32:Drivers/CMSIS/Include/cmsis_gcc.h **** #pragma GCC diagnostic ignored "-Wunused-parameter"
  33:Drivers/CMSIS/Include/cmsis_gcc.h **** 
  34:Drivers/CMSIS/Include/cmsis_gcc.h **** /* Fallback for __has_builtin */
  35:Drivers/CMSIS/Include/cmsis_gcc.h **** #ifndef __has_builtin
  36:Drivers/CMSIS/Include/cmsis_gcc.h ****   #define __has_builtin(x) (0)
  37:Drivers/CMSIS/Include/cmsis_gcc.h **** #endif
  38:Drivers/CMSIS/Include/cmsis_gcc.h **** 
  39:Drivers/CMSIS/Include/cmsis_gcc.h **** /* CMSIS compiler specific defines */
  40:Drivers/CMSIS/Include/cmsis_gcc.h **** #ifndef   __ASM
  41:Drivers/CMSIS/Include/cmsis_gcc.h ****   #define __ASM                                  __asm
  42:Drivers/CMSIS/Include/cmsis_gcc.h **** #endif
  43:Drivers/CMSIS/Include/cmsis_gcc.h **** #ifndef   __INLINE
  44:Drivers/CMSIS/Include/cmsis_gcc.h ****   #define __INLINE                               inline
  45:Drivers/CMSIS/Include/cmsis_gcc.h **** #endif
  46:Drivers/CMSIS/Include/cmsis_gcc.h **** #ifndef   __STATIC_INLINE
  47:Drivers/CMSIS/Include/cmsis_gcc.h ****   #define __STATIC_INLINE                        static inline
  48:Drivers/CMSIS/Include/cmsis_gcc.h **** #endif
  49:Drivers/CMSIS/Include/cmsis_gcc.h **** #ifndef   __STATIC_FORCEINLINE                 
  50:Drivers/CMSIS/Include/cmsis_gcc.h ****   #define __STATIC_FORCEINLINE                   __attribute__((always_inline)) static inline
  51:Drivers/CMSIS/Include/cmsis_gcc.h **** #endif                                           
  52:Drivers/CMSIS/Include/cmsis_gcc.h **** #ifndef   __NO_RETURN
  53:Drivers/CMSIS/Include/cmsis_gcc.h ****   #define __NO_RETURN                            __attribute__((__noreturn__))
  54:Drivers/CMSIS/Include/cmsis_gcc.h **** #endif
  55:Drivers/CMSIS/Include/cmsis_gcc.h **** #ifndef   __USED
  56:Drivers/CMSIS/Include/cmsis_gcc.h ****   #define __USED                                 __attribute__((used))
  57:Drivers/CMSIS/Include/cmsis_gcc.h **** #endif
  58:Drivers/CMSIS/Include/cmsis_gcc.h **** #ifndef   __WEAK
  59:Drivers/CMSIS/Include/cmsis_gcc.h ****   #define __WEAK                                 __attribute__((weak))
  60:Drivers/CMSIS/Include/cmsis_gcc.h **** #endif
  61:Drivers/CMSIS/Include/cmsis_gcc.h **** #ifndef   __PACKED
  62:Drivers/CMSIS/Include/cmsis_gcc.h ****   #define __PACKED                               __attribute__((packed, aligned(1)))
ARM GAS  /tmp/ccgUkepq.s 			page 18


  63:Drivers/CMSIS/Include/cmsis_gcc.h **** #endif
  64:Drivers/CMSIS/Include/cmsis_gcc.h **** #ifndef   __PACKED_STRUCT
  65:Drivers/CMSIS/Include/cmsis_gcc.h ****   #define __PACKED_STRUCT                        struct __attribute__((packed, aligned(1)))
  66:Drivers/CMSIS/Include/cmsis_gcc.h **** #endif
  67:Drivers/CMSIS/Include/cmsis_gcc.h **** #ifndef   __PACKED_UNION
  68:Drivers/CMSIS/Include/cmsis_gcc.h ****   #define __PACKED_UNION                         union __attribute__((packed, aligned(1)))
  69:Drivers/CMSIS/Include/cmsis_gcc.h **** #endif
  70:Drivers/CMSIS/Include/cmsis_gcc.h **** #ifndef   __UNALIGNED_UINT32        /* deprecated */
  71:Drivers/CMSIS/Include/cmsis_gcc.h ****   #pragma GCC diagnostic push
  72:Drivers/CMSIS/Include/cmsis_gcc.h ****   #pragma GCC diagnostic ignored "-Wpacked"
  73:Drivers/CMSIS/Include/cmsis_gcc.h ****   #pragma GCC diagnostic ignored "-Wattributes"
  74:Drivers/CMSIS/Include/cmsis_gcc.h ****   struct __attribute__((packed)) T_UINT32 { uint32_t v; };
  75:Drivers/CMSIS/Include/cmsis_gcc.h ****   #pragma GCC diagnostic pop
  76:Drivers/CMSIS/Include/cmsis_gcc.h ****   #define __UNALIGNED_UINT32(x)                  (((struct T_UINT32 *)(x))->v)
  77:Drivers/CMSIS/Include/cmsis_gcc.h **** #endif
  78:Drivers/CMSIS/Include/cmsis_gcc.h **** #ifndef   __UNALIGNED_UINT16_WRITE
  79:Drivers/CMSIS/Include/cmsis_gcc.h ****   #pragma GCC diagnostic push
  80:Drivers/CMSIS/Include/cmsis_gcc.h ****   #pragma GCC diagnostic ignored "-Wpacked"
  81:Drivers/CMSIS/Include/cmsis_gcc.h ****   #pragma GCC diagnostic ignored "-Wattributes"
  82:Drivers/CMSIS/Include/cmsis_gcc.h ****   __PACKED_STRUCT T_UINT16_WRITE { uint16_t v; };
  83:Drivers/CMSIS/Include/cmsis_gcc.h ****   #pragma GCC diagnostic pop
  84:Drivers/CMSIS/Include/cmsis_gcc.h ****   #define __UNALIGNED_UINT16_WRITE(addr, val)    (void)((((struct T_UINT16_WRITE *)(void *)(addr))-
  85:Drivers/CMSIS/Include/cmsis_gcc.h **** #endif
  86:Drivers/CMSIS/Include/cmsis_gcc.h **** #ifndef   __UNALIGNED_UINT16_READ
  87:Drivers/CMSIS/Include/cmsis_gcc.h ****   #pragma GCC diagnostic push
  88:Drivers/CMSIS/Include/cmsis_gcc.h ****   #pragma GCC diagnostic ignored "-Wpacked"
  89:Drivers/CMSIS/Include/cmsis_gcc.h ****   #pragma GCC diagnostic ignored "-Wattributes"
  90:Drivers/CMSIS/Include/cmsis_gcc.h ****   __PACKED_STRUCT T_UINT16_READ { uint16_t v; };
  91:Drivers/CMSIS/Include/cmsis_gcc.h ****   #pragma GCC diagnostic pop
  92:Drivers/CMSIS/Include/cmsis_gcc.h ****   #define __UNALIGNED_UINT16_READ(addr)          (((const struct T_UINT16_READ *)(const void *)(add
  93:Drivers/CMSIS/Include/cmsis_gcc.h **** #endif
  94:Drivers/CMSIS/Include/cmsis_gcc.h **** #ifndef   __UNALIGNED_UINT32_WRITE
  95:Drivers/CMSIS/Include/cmsis_gcc.h ****   #pragma GCC diagnostic push
  96:Drivers/CMSIS/Include/cmsis_gcc.h ****   #pragma GCC diagnostic ignored "-Wpacked"
  97:Drivers/CMSIS/Include/cmsis_gcc.h ****   #pragma GCC diagnostic ignored "-Wattributes"
  98:Drivers/CMSIS/Include/cmsis_gcc.h ****   __PACKED_STRUCT T_UINT32_WRITE { uint32_t v; };
  99:Drivers/CMSIS/Include/cmsis_gcc.h ****   #pragma GCC diagnostic pop
 100:Drivers/CMSIS/Include/cmsis_gcc.h ****   #define __UNALIGNED_UINT32_WRITE(addr, val)    (void)((((struct T_UINT32_WRITE *)(void *)(addr))-
 101:Drivers/CMSIS/Include/cmsis_gcc.h **** #endif
 102:Drivers/CMSIS/Include/cmsis_gcc.h **** #ifndef   __UNALIGNED_UINT32_READ
 103:Drivers/CMSIS/Include/cmsis_gcc.h ****   #pragma GCC diagnostic push
 104:Drivers/CMSIS/Include/cmsis_gcc.h ****   #pragma GCC diagnostic ignored "-Wpacked"
 105:Drivers/CMSIS/Include/cmsis_gcc.h ****   #pragma GCC diagnostic ignored "-Wattributes"
 106:Drivers/CMSIS/Include/cmsis_gcc.h ****   __PACKED_STRUCT T_UINT32_READ { uint32_t v; };
 107:Drivers/CMSIS/Include/cmsis_gcc.h ****   #pragma GCC diagnostic pop
 108:Drivers/CMSIS/Include/cmsis_gcc.h ****   #define __UNALIGNED_UINT32_READ(addr)          (((const struct T_UINT32_READ *)(const void *)(add
 109:Drivers/CMSIS/Include/cmsis_gcc.h **** #endif
 110:Drivers/CMSIS/Include/cmsis_gcc.h **** #ifndef   __ALIGNED
 111:Drivers/CMSIS/Include/cmsis_gcc.h ****   #define __ALIGNED(x)                           __attribute__((aligned(x)))
 112:Drivers/CMSIS/Include/cmsis_gcc.h **** #endif
 113:Drivers/CMSIS/Include/cmsis_gcc.h **** #ifndef   __RESTRICT
 114:Drivers/CMSIS/Include/cmsis_gcc.h ****   #define __RESTRICT                             __restrict
 115:Drivers/CMSIS/Include/cmsis_gcc.h **** #endif
 116:Drivers/CMSIS/Include/cmsis_gcc.h **** 
 117:Drivers/CMSIS/Include/cmsis_gcc.h **** 
 118:Drivers/CMSIS/Include/cmsis_gcc.h **** /* ###########################  Core Function Access  ########################### */
 119:Drivers/CMSIS/Include/cmsis_gcc.h **** /** \ingroup  CMSIS_Core_FunctionInterface
ARM GAS  /tmp/ccgUkepq.s 			page 19


 120:Drivers/CMSIS/Include/cmsis_gcc.h ****     \defgroup CMSIS_Core_RegAccFunctions CMSIS Core Register Access Functions
 121:Drivers/CMSIS/Include/cmsis_gcc.h ****   @{
 122:Drivers/CMSIS/Include/cmsis_gcc.h ****  */
 123:Drivers/CMSIS/Include/cmsis_gcc.h **** 
 124:Drivers/CMSIS/Include/cmsis_gcc.h **** /**
 125:Drivers/CMSIS/Include/cmsis_gcc.h ****   \brief   Enable IRQ Interrupts
 126:Drivers/CMSIS/Include/cmsis_gcc.h ****   \details Enables IRQ interrupts by clearing the I-bit in the CPSR.
 127:Drivers/CMSIS/Include/cmsis_gcc.h ****            Can only be executed in Privileged modes.
 128:Drivers/CMSIS/Include/cmsis_gcc.h ****  */
 129:Drivers/CMSIS/Include/cmsis_gcc.h **** __STATIC_FORCEINLINE void __enable_irq(void)
 130:Drivers/CMSIS/Include/cmsis_gcc.h **** {
 131:Drivers/CMSIS/Include/cmsis_gcc.h ****   __ASM volatile ("cpsie i" : : : "memory");
 132:Drivers/CMSIS/Include/cmsis_gcc.h **** }
 133:Drivers/CMSIS/Include/cmsis_gcc.h **** 
 134:Drivers/CMSIS/Include/cmsis_gcc.h **** 
 135:Drivers/CMSIS/Include/cmsis_gcc.h **** /**
 136:Drivers/CMSIS/Include/cmsis_gcc.h ****   \brief   Disable IRQ Interrupts
 137:Drivers/CMSIS/Include/cmsis_gcc.h ****   \details Disables IRQ interrupts by setting the I-bit in the CPSR.
 138:Drivers/CMSIS/Include/cmsis_gcc.h ****            Can only be executed in Privileged modes.
 139:Drivers/CMSIS/Include/cmsis_gcc.h ****  */
 140:Drivers/CMSIS/Include/cmsis_gcc.h **** __STATIC_FORCEINLINE void __disable_irq(void)
 398              		.loc 2 140 27 view .LVU91
 399              	.LBB10:
 141:Drivers/CMSIS/Include/cmsis_gcc.h **** {
 142:Drivers/CMSIS/Include/cmsis_gcc.h ****   __ASM volatile ("cpsid i" : : : "memory");
 400              		.loc 2 142 3 view .LVU92
 401              		.syntax unified
 402              	@ 142 "Drivers/CMSIS/Include/cmsis_gcc.h" 1
 403 0000 72B6     		cpsid i
 404              	@ 0 "" 2
 405              		.thumb
 406              		.syntax unified
 407              	.L21:
 408              	.LBE10:
 409              	.LBE9:
 492:Core/Src/main.cpp ****   {
 410              		.loc 1 492 3 view .LVU93
 492:Core/Src/main.cpp ****   {
 411              		.loc 1 492 3 view .LVU94
 412 0002 FEE7     		b	.L21
 413              		.cfi_endproc
 414              	.LFE596:
 415              		.cantunwind
 416              		.fnend
 418              		.section	.text._ZL12MX_I2C1_Initv,"ax",%progbits
 419              		.align	1
 420              		.syntax unified
 421              		.thumb
 422              		.thumb_func
 424              	_ZL12MX_I2C1_Initv:
 425              		.fnstart
 426              	.LFB587:
 190:Core/Src/main.cpp **** 
 427              		.loc 1 190 1 view -0
 428              		.cfi_startproc
 429              		@ args = 0, pretend = 0, frame = 0
 430              		@ frame_needed = 0, uses_anonymous_args = 0
ARM GAS  /tmp/ccgUkepq.s 			page 20


 431 0000 08B5     		push	{r3, lr}
 432              		.save {r3, lr}
 433              		.cfi_def_cfa_offset 8
 434              		.cfi_offset 3, -8
 435              		.cfi_offset 14, -4
 199:Core/Src/main.cpp ****   hi2c1.Init.ClockSpeed = 100000;
 436              		.loc 1 199 3 view .LVU96
 199:Core/Src/main.cpp ****   hi2c1.Init.ClockSpeed = 100000;
 437              		.loc 1 199 18 is_stmt 0 view .LVU97
 438 0002 0A48     		ldr	r0, .L26
 439 0004 0A4B     		ldr	r3, .L26+4
 440 0006 0360     		str	r3, [r0]
 200:Core/Src/main.cpp ****   hi2c1.Init.DutyCycle = I2C_DUTYCYCLE_2;
 441              		.loc 1 200 3 is_stmt 1 view .LVU98
 200:Core/Src/main.cpp ****   hi2c1.Init.DutyCycle = I2C_DUTYCYCLE_2;
 442              		.loc 1 200 25 is_stmt 0 view .LVU99
 443 0008 0A4B     		ldr	r3, .L26+8
 444 000a 4360     		str	r3, [r0, #4]
 201:Core/Src/main.cpp ****   hi2c1.Init.OwnAddress1 = 0;
 445              		.loc 1 201 3 is_stmt 1 view .LVU100
 201:Core/Src/main.cpp ****   hi2c1.Init.OwnAddress1 = 0;
 446              		.loc 1 201 24 is_stmt 0 view .LVU101
 447 000c 0023     		movs	r3, #0
 448 000e 8360     		str	r3, [r0, #8]
 202:Core/Src/main.cpp ****   hi2c1.Init.AddressingMode = I2C_ADDRESSINGMODE_7BIT;
 449              		.loc 1 202 3 is_stmt 1 view .LVU102
 202:Core/Src/main.cpp ****   hi2c1.Init.AddressingMode = I2C_ADDRESSINGMODE_7BIT;
 450              		.loc 1 202 26 is_stmt 0 view .LVU103
 451 0010 C360     		str	r3, [r0, #12]
 203:Core/Src/main.cpp ****   hi2c1.Init.DualAddressMode = I2C_DUALADDRESS_DISABLE;
 452              		.loc 1 203 3 is_stmt 1 view .LVU104
 203:Core/Src/main.cpp ****   hi2c1.Init.DualAddressMode = I2C_DUALADDRESS_DISABLE;
 453              		.loc 1 203 29 is_stmt 0 view .LVU105
 454 0012 4FF48042 		mov	r2, #16384
 455 0016 0261     		str	r2, [r0, #16]
 204:Core/Src/main.cpp ****   hi2c1.Init.OwnAddress2 = 0;
 456              		.loc 1 204 3 is_stmt 1 view .LVU106
 204:Core/Src/main.cpp ****   hi2c1.Init.OwnAddress2 = 0;
 457              		.loc 1 204 30 is_stmt 0 view .LVU107
 458 0018 4361     		str	r3, [r0, #20]
 205:Core/Src/main.cpp ****   hi2c1.Init.GeneralCallMode = I2C_GENERALCALL_DISABLE;
 459              		.loc 1 205 3 is_stmt 1 view .LVU108
 205:Core/Src/main.cpp ****   hi2c1.Init.GeneralCallMode = I2C_GENERALCALL_DISABLE;
 460              		.loc 1 205 26 is_stmt 0 view .LVU109
 461 001a 8361     		str	r3, [r0, #24]
 206:Core/Src/main.cpp ****   hi2c1.Init.NoStretchMode = I2C_NOSTRETCH_DISABLE;
 462              		.loc 1 206 3 is_stmt 1 view .LVU110
 206:Core/Src/main.cpp ****   hi2c1.Init.NoStretchMode = I2C_NOSTRETCH_DISABLE;
 463              		.loc 1 206 30 is_stmt 0 view .LVU111
 464 001c C361     		str	r3, [r0, #28]
 207:Core/Src/main.cpp ****   if (HAL_I2C_Init(&hi2c1) != HAL_OK)
 465              		.loc 1 207 3 is_stmt 1 view .LVU112
 207:Core/Src/main.cpp ****   if (HAL_I2C_Init(&hi2c1) != HAL_OK)
 466              		.loc 1 207 28 is_stmt 0 view .LVU113
 467 001e 0362     		str	r3, [r0, #32]
 208:Core/Src/main.cpp ****   {
 468              		.loc 1 208 3 is_stmt 1 view .LVU114
ARM GAS  /tmp/ccgUkepq.s 			page 21


 208:Core/Src/main.cpp ****   {
 469              		.loc 1 208 19 is_stmt 0 view .LVU115
 470 0020 FFF7FEFF 		bl	HAL_I2C_Init
 471              	.LVL12:
 208:Core/Src/main.cpp ****   {
 472              		.loc 1 208 3 discriminator 1 view .LVU116
 473 0024 00B9     		cbnz	r0, .L25
 216:Core/Src/main.cpp **** 
 474              		.loc 1 216 1 view .LVU117
 475 0026 08BD     		pop	{r3, pc}
 476              	.L25:
 210:Core/Src/main.cpp ****   }
 477              		.loc 1 210 5 is_stmt 1 view .LVU118
 210:Core/Src/main.cpp ****   }
 478              		.loc 1 210 18 is_stmt 0 view .LVU119
 479 0028 FFF7FEFF 		bl	Error_Handler
 480              	.LVL13:
 481              	.L27:
 482              		.align	2
 483              	.L26:
 484 002c 00000000 		.word	hi2c1
 485 0030 00540040 		.word	1073763328
 486 0034 A0860100 		.word	100000
 487              		.cfi_endproc
 488              	.LFE587:
 489              		.fnend
 491              		.section	.text._ZL12MX_I2S2_Initv,"ax",%progbits
 492              		.align	1
 493              		.syntax unified
 494              		.thumb
 495              		.thumb_func
 497              	_ZL12MX_I2S2_Initv:
 498              		.fnstart
 499              	.LFB588:
 224:Core/Src/main.cpp **** 
 500              		.loc 1 224 1 is_stmt 1 view -0
 501              		.cfi_startproc
 502              		@ args = 0, pretend = 0, frame = 0
 503              		@ frame_needed = 0, uses_anonymous_args = 0
 504 0000 08B5     		push	{r3, lr}
 505              		.save {r3, lr}
 506              		.cfi_def_cfa_offset 8
 507              		.cfi_offset 3, -8
 508              		.cfi_offset 14, -4
 233:Core/Src/main.cpp ****   hi2s2.Init.Mode = I2S_MODE_MASTER_TX;
 509              		.loc 1 233 3 view .LVU121
 233:Core/Src/main.cpp ****   hi2s2.Init.Mode = I2S_MODE_MASTER_TX;
 510              		.loc 1 233 18 is_stmt 0 view .LVU122
 511 0002 0B48     		ldr	r0, .L32
 512 0004 0B4B     		ldr	r3, .L32+4
 513 0006 0360     		str	r3, [r0]
 234:Core/Src/main.cpp ****   hi2s2.Init.Standard = I2S_STANDARD_MSB;
 514              		.loc 1 234 3 is_stmt 1 view .LVU123
 234:Core/Src/main.cpp ****   hi2s2.Init.Standard = I2S_STANDARD_MSB;
 515              		.loc 1 234 19 is_stmt 0 view .LVU124
 516 0008 4FF40073 		mov	r3, #512
 517 000c 4360     		str	r3, [r0, #4]
ARM GAS  /tmp/ccgUkepq.s 			page 22


 235:Core/Src/main.cpp ****   hi2s2.Init.DataFormat = I2S_DATAFORMAT_32B;
 518              		.loc 1 235 3 is_stmt 1 view .LVU125
 235:Core/Src/main.cpp ****   hi2s2.Init.DataFormat = I2S_DATAFORMAT_32B;
 519              		.loc 1 235 23 is_stmt 0 view .LVU126
 520 000e 1023     		movs	r3, #16
 521 0010 8360     		str	r3, [r0, #8]
 236:Core/Src/main.cpp ****   hi2s2.Init.MCLKOutput = I2S_MCLKOUTPUT_DISABLE;
 522              		.loc 1 236 3 is_stmt 1 view .LVU127
 236:Core/Src/main.cpp ****   hi2s2.Init.MCLKOutput = I2S_MCLKOUTPUT_DISABLE;
 523              		.loc 1 236 25 is_stmt 0 view .LVU128
 524 0012 0523     		movs	r3, #5
 525 0014 C360     		str	r3, [r0, #12]
 237:Core/Src/main.cpp ****   hi2s2.Init.AudioFreq = I2S_AUDIOFREQ_96K;
 526              		.loc 1 237 3 is_stmt 1 view .LVU129
 237:Core/Src/main.cpp ****   hi2s2.Init.AudioFreq = I2S_AUDIOFREQ_96K;
 527              		.loc 1 237 25 is_stmt 0 view .LVU130
 528 0016 0023     		movs	r3, #0
 529 0018 0361     		str	r3, [r0, #16]
 238:Core/Src/main.cpp ****   hi2s2.Init.CPOL = I2S_CPOL_LOW;
 530              		.loc 1 238 3 is_stmt 1 view .LVU131
 238:Core/Src/main.cpp ****   hi2s2.Init.CPOL = I2S_CPOL_LOW;
 531              		.loc 1 238 24 is_stmt 0 view .LVU132
 532 001a 074A     		ldr	r2, .L32+8
 533 001c 4261     		str	r2, [r0, #20]
 239:Core/Src/main.cpp ****   hi2s2.Init.ClockSource = I2S_CLOCK_PLL;
 534              		.loc 1 239 3 is_stmt 1 view .LVU133
 239:Core/Src/main.cpp ****   hi2s2.Init.ClockSource = I2S_CLOCK_PLL;
 535              		.loc 1 239 19 is_stmt 0 view .LVU134
 536 001e 8361     		str	r3, [r0, #24]
 240:Core/Src/main.cpp ****   hi2s2.Init.FullDuplexMode = I2S_FULLDUPLEXMODE_DISABLE;
 537              		.loc 1 240 3 is_stmt 1 view .LVU135
 240:Core/Src/main.cpp ****   hi2s2.Init.FullDuplexMode = I2S_FULLDUPLEXMODE_DISABLE;
 538              		.loc 1 240 26 is_stmt 0 view .LVU136
 539 0020 C361     		str	r3, [r0, #28]
 241:Core/Src/main.cpp ****   if (HAL_I2S_Init(&hi2s2) != HAL_OK)
 540              		.loc 1 241 3 is_stmt 1 view .LVU137
 241:Core/Src/main.cpp ****   if (HAL_I2S_Init(&hi2s2) != HAL_OK)
 541              		.loc 1 241 29 is_stmt 0 view .LVU138
 542 0022 0362     		str	r3, [r0, #32]
 242:Core/Src/main.cpp ****   {
 543              		.loc 1 242 3 is_stmt 1 view .LVU139
 242:Core/Src/main.cpp ****   {
 544              		.loc 1 242 19 is_stmt 0 view .LVU140
 545 0024 FFF7FEFF 		bl	HAL_I2S_Init
 546              	.LVL14:
 242:Core/Src/main.cpp ****   {
 547              		.loc 1 242 3 discriminator 1 view .LVU141
 548 0028 00B9     		cbnz	r0, .L31
 250:Core/Src/main.cpp **** 
 549              		.loc 1 250 1 view .LVU142
 550 002a 08BD     		pop	{r3, pc}
 551              	.L31:
 244:Core/Src/main.cpp ****   }
 552              		.loc 1 244 5 is_stmt 1 view .LVU143
 244:Core/Src/main.cpp ****   }
 553              		.loc 1 244 18 is_stmt 0 view .LVU144
 554 002c FFF7FEFF 		bl	Error_Handler
ARM GAS  /tmp/ccgUkepq.s 			page 23


 555              	.LVL15:
 556              	.L33:
 557              		.align	2
 558              	.L32:
 559 0030 00000000 		.word	hi2s2
 560 0034 00380040 		.word	1073756160
 561 0038 00770100 		.word	96000
 562              		.cfi_endproc
 563              	.LFE588:
 564              		.fnend
 566              		.section	.text._ZL12MX_SPI1_Initv,"ax",%progbits
 567              		.align	1
 568              		.syntax unified
 569              		.thumb
 570              		.thumb_func
 572              	_ZL12MX_SPI1_Initv:
 573              		.fnstart
 574              	.LFB590:
 341:Core/Src/main.cpp **** 
 575              		.loc 1 341 1 is_stmt 1 view -0
 576              		.cfi_startproc
 577              		@ args = 0, pretend = 0, frame = 0
 578              		@ frame_needed = 0, uses_anonymous_args = 0
 579 0000 08B5     		push	{r3, lr}
 580              		.save {r3, lr}
 581              		.cfi_def_cfa_offset 8
 582              		.cfi_offset 3, -8
 583              		.cfi_offset 14, -4
 351:Core/Src/main.cpp ****   hspi1.Init.Mode = SPI_MODE_MASTER;
 584              		.loc 1 351 3 view .LVU146
 351:Core/Src/main.cpp ****   hspi1.Init.Mode = SPI_MODE_MASTER;
 585              		.loc 1 351 18 is_stmt 0 view .LVU147
 586 0002 0D48     		ldr	r0, .L38
 587 0004 0D4B     		ldr	r3, .L38+4
 588 0006 0360     		str	r3, [r0]
 352:Core/Src/main.cpp ****   hspi1.Init.Direction = SPI_DIRECTION_2LINES;
 589              		.loc 1 352 3 is_stmt 1 view .LVU148
 352:Core/Src/main.cpp ****   hspi1.Init.Direction = SPI_DIRECTION_2LINES;
 590              		.loc 1 352 19 is_stmt 0 view .LVU149
 591 0008 4FF48273 		mov	r3, #260
 592 000c 4360     		str	r3, [r0, #4]
 353:Core/Src/main.cpp ****   hspi1.Init.DataSize = SPI_DATASIZE_8BIT;
 593              		.loc 1 353 3 is_stmt 1 view .LVU150
 353:Core/Src/main.cpp ****   hspi1.Init.DataSize = SPI_DATASIZE_8BIT;
 594              		.loc 1 353 24 is_stmt 0 view .LVU151
 595 000e 0023     		movs	r3, #0
 596 0010 8360     		str	r3, [r0, #8]
 354:Core/Src/main.cpp ****   hspi1.Init.CLKPolarity = SPI_POLARITY_LOW;
 597              		.loc 1 354 3 is_stmt 1 view .LVU152
 354:Core/Src/main.cpp ****   hspi1.Init.CLKPolarity = SPI_POLARITY_LOW;
 598              		.loc 1 354 23 is_stmt 0 view .LVU153
 599 0012 C360     		str	r3, [r0, #12]
 355:Core/Src/main.cpp ****   hspi1.Init.CLKPhase = SPI_PHASE_1EDGE;
 600              		.loc 1 355 3 is_stmt 1 view .LVU154
 355:Core/Src/main.cpp ****   hspi1.Init.CLKPhase = SPI_PHASE_1EDGE;
 601              		.loc 1 355 26 is_stmt 0 view .LVU155
 602 0014 0361     		str	r3, [r0, #16]
ARM GAS  /tmp/ccgUkepq.s 			page 24


 356:Core/Src/main.cpp ****   hspi1.Init.NSS = SPI_NSS_SOFT;
 603              		.loc 1 356 3 is_stmt 1 view .LVU156
 356:Core/Src/main.cpp ****   hspi1.Init.NSS = SPI_NSS_SOFT;
 604              		.loc 1 356 23 is_stmt 0 view .LVU157
 605 0016 4361     		str	r3, [r0, #20]
 357:Core/Src/main.cpp ****   hspi1.Init.BaudRatePrescaler = SPI_BAUDRATEPRESCALER_2;
 606              		.loc 1 357 3 is_stmt 1 view .LVU158
 357:Core/Src/main.cpp ****   hspi1.Init.BaudRatePrescaler = SPI_BAUDRATEPRESCALER_2;
 607              		.loc 1 357 18 is_stmt 0 view .LVU159
 608 0018 4FF40072 		mov	r2, #512
 609 001c 8261     		str	r2, [r0, #24]
 358:Core/Src/main.cpp ****   hspi1.Init.FirstBit = SPI_FIRSTBIT_MSB;
 610              		.loc 1 358 3 is_stmt 1 view .LVU160
 358:Core/Src/main.cpp ****   hspi1.Init.FirstBit = SPI_FIRSTBIT_MSB;
 611              		.loc 1 358 32 is_stmt 0 view .LVU161
 612 001e C361     		str	r3, [r0, #28]
 359:Core/Src/main.cpp ****   hspi1.Init.TIMode = SPI_TIMODE_DISABLE;
 613              		.loc 1 359 3 is_stmt 1 view .LVU162
 359:Core/Src/main.cpp ****   hspi1.Init.TIMode = SPI_TIMODE_DISABLE;
 614              		.loc 1 359 23 is_stmt 0 view .LVU163
 615 0020 0362     		str	r3, [r0, #32]
 360:Core/Src/main.cpp ****   hspi1.Init.CRCCalculation = SPI_CRCCALCULATION_DISABLE;
 616              		.loc 1 360 3 is_stmt 1 view .LVU164
 360:Core/Src/main.cpp ****   hspi1.Init.CRCCalculation = SPI_CRCCALCULATION_DISABLE;
 617              		.loc 1 360 21 is_stmt 0 view .LVU165
 618 0022 4362     		str	r3, [r0, #36]
 361:Core/Src/main.cpp ****   hspi1.Init.CRCPolynomial = 10;
 619              		.loc 1 361 3 is_stmt 1 view .LVU166
 361:Core/Src/main.cpp ****   hspi1.Init.CRCPolynomial = 10;
 620              		.loc 1 361 29 is_stmt 0 view .LVU167
 621 0024 8362     		str	r3, [r0, #40]
 362:Core/Src/main.cpp ****   if (HAL_SPI_Init(&hspi1) != HAL_OK)
 622              		.loc 1 362 3 is_stmt 1 view .LVU168
 362:Core/Src/main.cpp ****   if (HAL_SPI_Init(&hspi1) != HAL_OK)
 623              		.loc 1 362 28 is_stmt 0 view .LVU169
 624 0026 0A23     		movs	r3, #10
 625 0028 C362     		str	r3, [r0, #44]
 363:Core/Src/main.cpp ****   {
 626              		.loc 1 363 3 is_stmt 1 view .LVU170
 363:Core/Src/main.cpp ****   {
 627              		.loc 1 363 19 is_stmt 0 view .LVU171
 628 002a FFF7FEFF 		bl	HAL_SPI_Init
 629              	.LVL16:
 363:Core/Src/main.cpp ****   {
 630              		.loc 1 363 3 discriminator 1 view .LVU172
 631 002e 00B9     		cbnz	r0, .L37
 371:Core/Src/main.cpp **** 
 632              		.loc 1 371 1 view .LVU173
 633 0030 08BD     		pop	{r3, pc}
 634              	.L37:
 365:Core/Src/main.cpp ****   }
 635              		.loc 1 365 5 is_stmt 1 view .LVU174
 365:Core/Src/main.cpp ****   }
 636              		.loc 1 365 18 is_stmt 0 view .LVU175
 637 0032 FFF7FEFF 		bl	Error_Handler
 638              	.LVL17:
 639              	.L39:
ARM GAS  /tmp/ccgUkepq.s 			page 25


 640 0036 00BF     		.align	2
 641              	.L38:
 642 0038 00000000 		.word	hspi1
 643 003c 00300140 		.word	1073819648
 644              		.cfi_endproc
 645              	.LFE590:
 646              		.fnend
 648              		.section	.text._ZL19MX_USART1_UART_Initv,"ax",%progbits
 649              		.align	1
 650              		.syntax unified
 651              		.thumb
 652              		.thumb_func
 654              	_ZL19MX_USART1_UART_Initv:
 655              		.fnstart
 656              	.LFB591:
 379:Core/Src/main.cpp **** 
 657              		.loc 1 379 1 is_stmt 1 view -0
 658              		.cfi_startproc
 659              		@ args = 0, pretend = 0, frame = 0
 660              		@ frame_needed = 0, uses_anonymous_args = 0
 661 0000 08B5     		push	{r3, lr}
 662              		.save {r3, lr}
 663              		.cfi_def_cfa_offset 8
 664              		.cfi_offset 3, -8
 665              		.cfi_offset 14, -4
 388:Core/Src/main.cpp ****   huart1.Init.BaudRate = 115200;
 666              		.loc 1 388 3 view .LVU177
 388:Core/Src/main.cpp ****   huart1.Init.BaudRate = 115200;
 667              		.loc 1 388 19 is_stmt 0 view .LVU178
 668 0002 0B48     		ldr	r0, .L44
 669 0004 0B4B     		ldr	r3, .L44+4
 670 0006 0360     		str	r3, [r0]
 389:Core/Src/main.cpp ****   huart1.Init.WordLength = UART_WORDLENGTH_8B;
 671              		.loc 1 389 3 is_stmt 1 view .LVU179
 389:Core/Src/main.cpp ****   huart1.Init.WordLength = UART_WORDLENGTH_8B;
 672              		.loc 1 389 24 is_stmt 0 view .LVU180
 673 0008 4FF4E133 		mov	r3, #115200
 674 000c 4360     		str	r3, [r0, #4]
 390:Core/Src/main.cpp ****   huart1.Init.StopBits = UART_STOPBITS_1;
 675              		.loc 1 390 3 is_stmt 1 view .LVU181
 390:Core/Src/main.cpp ****   huart1.Init.StopBits = UART_STOPBITS_1;
 676              		.loc 1 390 26 is_stmt 0 view .LVU182
 677 000e 0023     		movs	r3, #0
 678 0010 8360     		str	r3, [r0, #8]
 391:Core/Src/main.cpp ****   huart1.Init.Parity = UART_PARITY_NONE;
 679              		.loc 1 391 3 is_stmt 1 view .LVU183
 391:Core/Src/main.cpp ****   huart1.Init.Parity = UART_PARITY_NONE;
 680              		.loc 1 391 24 is_stmt 0 view .LVU184
 681 0012 C360     		str	r3, [r0, #12]
 392:Core/Src/main.cpp ****   huart1.Init.Mode = UART_MODE_TX_RX;
 682              		.loc 1 392 3 is_stmt 1 view .LVU185
 392:Core/Src/main.cpp ****   huart1.Init.Mode = UART_MODE_TX_RX;
 683              		.loc 1 392 22 is_stmt 0 view .LVU186
 684 0014 0361     		str	r3, [r0, #16]
 393:Core/Src/main.cpp ****   huart1.Init.HwFlowCtl = UART_HWCONTROL_RTS_CTS;
 685              		.loc 1 393 3 is_stmt 1 view .LVU187
 393:Core/Src/main.cpp ****   huart1.Init.HwFlowCtl = UART_HWCONTROL_RTS_CTS;
ARM GAS  /tmp/ccgUkepq.s 			page 26


 686              		.loc 1 393 20 is_stmt 0 view .LVU188
 687 0016 0C22     		movs	r2, #12
 688 0018 4261     		str	r2, [r0, #20]
 394:Core/Src/main.cpp ****   huart1.Init.OverSampling = UART_OVERSAMPLING_16;
 689              		.loc 1 394 3 is_stmt 1 view .LVU189
 394:Core/Src/main.cpp ****   huart1.Init.OverSampling = UART_OVERSAMPLING_16;
 690              		.loc 1 394 25 is_stmt 0 view .LVU190
 691 001a 4FF44072 		mov	r2, #768
 692 001e 8261     		str	r2, [r0, #24]
 395:Core/Src/main.cpp ****   if (HAL_UART_Init(&huart1) != HAL_OK)
 693              		.loc 1 395 3 is_stmt 1 view .LVU191
 395:Core/Src/main.cpp ****   if (HAL_UART_Init(&huart1) != HAL_OK)
 694              		.loc 1 395 28 is_stmt 0 view .LVU192
 695 0020 C361     		str	r3, [r0, #28]
 396:Core/Src/main.cpp ****   {
 696              		.loc 1 396 3 is_stmt 1 view .LVU193
 396:Core/Src/main.cpp ****   {
 697              		.loc 1 396 20 is_stmt 0 view .LVU194
 698 0022 FFF7FEFF 		bl	HAL_UART_Init
 699              	.LVL18:
 396:Core/Src/main.cpp ****   {
 700              		.loc 1 396 3 discriminator 1 view .LVU195
 701 0026 00B9     		cbnz	r0, .L43
 404:Core/Src/main.cpp **** 
 702              		.loc 1 404 1 view .LVU196
 703 0028 08BD     		pop	{r3, pc}
 704              	.L43:
 398:Core/Src/main.cpp ****   }
 705              		.loc 1 398 5 is_stmt 1 view .LVU197
 398:Core/Src/main.cpp ****   }
 706              		.loc 1 398 18 is_stmt 0 view .LVU198
 707 002a FFF7FEFF 		bl	Error_Handler
 708              	.LVL19:
 709              	.L45:
 710 002e 00BF     		.align	2
 711              	.L44:
 712 0030 00000000 		.word	huart1
 713 0034 00100140 		.word	1073811456
 714              		.cfi_endproc
 715              	.LFE591:
 716              		.fnend
 718              		.section	.text._ZL11MX_RTC_Initv,"ax",%progbits
 719              		.align	1
 720              		.syntax unified
 721              		.thumb
 722              		.thumb_func
 724              	_ZL11MX_RTC_Initv:
 725              		.fnstart
 726              	.LFB589:
 258:Core/Src/main.cpp **** 
 727              		.loc 1 258 1 is_stmt 1 view -0
 728              		.cfi_startproc
 729              		@ args = 0, pretend = 0, frame = 64
 730              		@ frame_needed = 0, uses_anonymous_args = 0
 731 0000 10B5     		push	{r4, lr}
 732              		.save {r4, lr}
 733              		.cfi_def_cfa_offset 8
ARM GAS  /tmp/ccgUkepq.s 			page 27


 734              		.cfi_offset 4, -8
 735              		.cfi_offset 14, -4
 736              		.pad #64
 737 0002 90B0     		sub	sp, sp, #64
 738              		.cfi_def_cfa_offset 72
 264:Core/Src/main.cpp ****   RTC_DateTypeDef sDate = {0};
 739              		.loc 1 264 3 view .LVU200
 264:Core/Src/main.cpp ****   RTC_DateTypeDef sDate = {0};
 740              		.loc 1 264 19 is_stmt 0 view .LVU201
 741 0004 0024     		movs	r4, #0
 742 0006 0B94     		str	r4, [sp, #44]
 743 0008 0C94     		str	r4, [sp, #48]
 744 000a 0D94     		str	r4, [sp, #52]
 745 000c 0E94     		str	r4, [sp, #56]
 746 000e 0F94     		str	r4, [sp, #60]
 265:Core/Src/main.cpp ****   RTC_AlarmTypeDef sAlarm = {0};
 747              		.loc 1 265 3 is_stmt 1 view .LVU202
 265:Core/Src/main.cpp ****   RTC_AlarmTypeDef sAlarm = {0};
 748              		.loc 1 265 19 is_stmt 0 view .LVU203
 749 0010 0A94     		str	r4, [sp, #40]
 266:Core/Src/main.cpp **** 
 750              		.loc 1 266 3 is_stmt 1 view .LVU204
 266:Core/Src/main.cpp **** 
 751              		.loc 1 266 20 is_stmt 0 view .LVU205
 752 0012 2822     		movs	r2, #40
 753 0014 2146     		mov	r1, r4
 754 0016 6846     		mov	r0, sp
 755 0018 FFF7FEFF 		bl	memset
 756              	.LVL20:
 274:Core/Src/main.cpp ****   hrtc.Init.HourFormat = RTC_HOURFORMAT_24;
 757              		.loc 1 274 3 is_stmt 1 view .LVU206
 274:Core/Src/main.cpp ****   hrtc.Init.HourFormat = RTC_HOURFORMAT_24;
 758              		.loc 1 274 17 is_stmt 0 view .LVU207
 759 001c 2B48     		ldr	r0, .L56
 760 001e 2C4B     		ldr	r3, .L56+4
 761 0020 0360     		str	r3, [r0]
 275:Core/Src/main.cpp ****   hrtc.Init.AsynchPrediv = 127;
 762              		.loc 1 275 3 is_stmt 1 view .LVU208
 275:Core/Src/main.cpp ****   hrtc.Init.AsynchPrediv = 127;
 763              		.loc 1 275 24 is_stmt 0 view .LVU209
 764 0022 4460     		str	r4, [r0, #4]
 276:Core/Src/main.cpp ****   hrtc.Init.SynchPrediv = 255;
 765              		.loc 1 276 3 is_stmt 1 view .LVU210
 276:Core/Src/main.cpp ****   hrtc.Init.SynchPrediv = 255;
 766              		.loc 1 276 26 is_stmt 0 view .LVU211
 767 0024 7F23     		movs	r3, #127
 768 0026 8360     		str	r3, [r0, #8]
 277:Core/Src/main.cpp ****   hrtc.Init.OutPut = RTC_OUTPUT_ALARMA;
 769              		.loc 1 277 3 is_stmt 1 view .LVU212
 277:Core/Src/main.cpp ****   hrtc.Init.OutPut = RTC_OUTPUT_ALARMA;
 770              		.loc 1 277 25 is_stmt 0 view .LVU213
 771 0028 FF23     		movs	r3, #255
 772 002a C360     		str	r3, [r0, #12]
 278:Core/Src/main.cpp ****   hrtc.Init.OutPutPolarity = RTC_OUTPUT_POLARITY_LOW;
 773              		.loc 1 278 3 is_stmt 1 view .LVU214
 278:Core/Src/main.cpp ****   hrtc.Init.OutPutPolarity = RTC_OUTPUT_POLARITY_LOW;
 774              		.loc 1 278 20 is_stmt 0 view .LVU215
ARM GAS  /tmp/ccgUkepq.s 			page 28


 775 002c 4FF40013 		mov	r3, #2097152
 776 0030 0361     		str	r3, [r0, #16]
 279:Core/Src/main.cpp ****   hrtc.Init.OutPutType = RTC_OUTPUT_TYPE_PUSHPULL;
 777              		.loc 1 279 3 is_stmt 1 view .LVU216
 279:Core/Src/main.cpp ****   hrtc.Init.OutPutType = RTC_OUTPUT_TYPE_PUSHPULL;
 778              		.loc 1 279 28 is_stmt 0 view .LVU217
 779 0032 4FF48013 		mov	r3, #1048576
 780 0036 4361     		str	r3, [r0, #20]
 280:Core/Src/main.cpp ****   if (HAL_RTC_Init(&hrtc) != HAL_OK)
 781              		.loc 1 280 3 is_stmt 1 view .LVU218
 280:Core/Src/main.cpp ****   if (HAL_RTC_Init(&hrtc) != HAL_OK)
 782              		.loc 1 280 24 is_stmt 0 view .LVU219
 783 0038 4FF48023 		mov	r3, #262144
 784 003c 8361     		str	r3, [r0, #24]
 281:Core/Src/main.cpp ****   {
 785              		.loc 1 281 3 is_stmt 1 view .LVU220
 281:Core/Src/main.cpp ****   {
 786              		.loc 1 281 19 is_stmt 0 view .LVU221
 787 003e FFF7FEFF 		bl	HAL_RTC_Init
 788              	.LVL21:
 281:Core/Src/main.cpp ****   {
 789              		.loc 1 281 3 discriminator 1 view .LVU222
 790 0042 0028     		cmp	r0, #0
 791 0044 39D1     		bne	.L52
 292:Core/Src/main.cpp ****   sTime.Minutes = 0x0;
 792              		.loc 1 292 3 is_stmt 1 view .LVU223
 292:Core/Src/main.cpp ****   sTime.Minutes = 0x0;
 793              		.loc 1 292 15 is_stmt 0 view .LVU224
 794 0046 0023     		movs	r3, #0
 795 0048 8DF82C30 		strb	r3, [sp, #44]
 293:Core/Src/main.cpp ****   sTime.Seconds = 0x0;
 796              		.loc 1 293 3 is_stmt 1 view .LVU225
 293:Core/Src/main.cpp ****   sTime.Seconds = 0x0;
 797              		.loc 1 293 17 is_stmt 0 view .LVU226
 798 004c 8DF82D30 		strb	r3, [sp, #45]
 294:Core/Src/main.cpp ****   sTime.DayLightSaving = RTC_DAYLIGHTSAVING_NONE;
 799              		.loc 1 294 3 is_stmt 1 view .LVU227
 294:Core/Src/main.cpp ****   sTime.DayLightSaving = RTC_DAYLIGHTSAVING_NONE;
 800              		.loc 1 294 17 is_stmt 0 view .LVU228
 801 0050 8DF82E30 		strb	r3, [sp, #46]
 295:Core/Src/main.cpp ****   sTime.StoreOperation = RTC_STOREOPERATION_RESET;
 802              		.loc 1 295 3 is_stmt 1 view .LVU229
 295:Core/Src/main.cpp ****   sTime.StoreOperation = RTC_STOREOPERATION_RESET;
 803              		.loc 1 295 24 is_stmt 0 view .LVU230
 804 0054 0E93     		str	r3, [sp, #56]
 296:Core/Src/main.cpp ****   if (HAL_RTC_SetTime(&hrtc, &sTime, RTC_FORMAT_BCD) != HAL_OK)
 805              		.loc 1 296 3 is_stmt 1 view .LVU231
 296:Core/Src/main.cpp ****   if (HAL_RTC_SetTime(&hrtc, &sTime, RTC_FORMAT_BCD) != HAL_OK)
 806              		.loc 1 296 24 is_stmt 0 view .LVU232
 807 0056 0F93     		str	r3, [sp, #60]
 297:Core/Src/main.cpp ****   {
 808              		.loc 1 297 3 is_stmt 1 view .LVU233
 297:Core/Src/main.cpp ****   {
 809              		.loc 1 297 22 is_stmt 0 view .LVU234
 810 0058 0122     		movs	r2, #1
 811 005a 0BA9     		add	r1, sp, #44
 812 005c 1B48     		ldr	r0, .L56
ARM GAS  /tmp/ccgUkepq.s 			page 29


 813 005e FFF7FEFF 		bl	HAL_RTC_SetTime
 814              	.LVL22:
 297:Core/Src/main.cpp ****   {
 815              		.loc 1 297 3 discriminator 1 view .LVU235
 816 0062 60BB     		cbnz	r0, .L53
 301:Core/Src/main.cpp ****   sDate.Month = RTC_MONTH_JANUARY;
 817              		.loc 1 301 3 is_stmt 1 view .LVU236
 301:Core/Src/main.cpp ****   sDate.Month = RTC_MONTH_JANUARY;
 818              		.loc 1 301 17 is_stmt 0 view .LVU237
 819 0064 0122     		movs	r2, #1
 820 0066 8DF82820 		strb	r2, [sp, #40]
 302:Core/Src/main.cpp ****   sDate.Date = 0x1;
 821              		.loc 1 302 3 is_stmt 1 view .LVU238
 302:Core/Src/main.cpp ****   sDate.Date = 0x1;
 822              		.loc 1 302 15 is_stmt 0 view .LVU239
 823 006a 8DF82920 		strb	r2, [sp, #41]
 303:Core/Src/main.cpp ****   sDate.Year = 0x0;
 824              		.loc 1 303 3 is_stmt 1 view .LVU240
 303:Core/Src/main.cpp ****   sDate.Year = 0x0;
 825              		.loc 1 303 14 is_stmt 0 view .LVU241
 826 006e 8DF82A20 		strb	r2, [sp, #42]
 304:Core/Src/main.cpp **** 
 827              		.loc 1 304 3 is_stmt 1 view .LVU242
 304:Core/Src/main.cpp **** 
 828              		.loc 1 304 14 is_stmt 0 view .LVU243
 829 0072 0023     		movs	r3, #0
 830 0074 8DF82B30 		strb	r3, [sp, #43]
 306:Core/Src/main.cpp ****   {
 831              		.loc 1 306 3 is_stmt 1 view .LVU244
 306:Core/Src/main.cpp ****   {
 832              		.loc 1 306 22 is_stmt 0 view .LVU245
 833 0078 0AA9     		add	r1, sp, #40
 834 007a 1448     		ldr	r0, .L56
 835 007c FFF7FEFF 		bl	HAL_RTC_SetDate
 836              	.LVL23:
 306:Core/Src/main.cpp ****   {
 837              		.loc 1 306 3 discriminator 1 view .LVU246
 838 0080 F8B9     		cbnz	r0, .L54
 313:Core/Src/main.cpp ****   sAlarm.AlarmTime.Minutes = 0x0;
 839              		.loc 1 313 3 is_stmt 1 view .LVU247
 313:Core/Src/main.cpp ****   sAlarm.AlarmTime.Minutes = 0x0;
 840              		.loc 1 313 26 is_stmt 0 view .LVU248
 841 0082 0023     		movs	r3, #0
 842 0084 8DF80030 		strb	r3, [sp]
 314:Core/Src/main.cpp ****   sAlarm.AlarmTime.Seconds = 0x10;
 843              		.loc 1 314 3 is_stmt 1 view .LVU249
 314:Core/Src/main.cpp ****   sAlarm.AlarmTime.Seconds = 0x10;
 844              		.loc 1 314 28 is_stmt 0 view .LVU250
 845 0088 8DF80130 		strb	r3, [sp, #1]
 315:Core/Src/main.cpp ****   sAlarm.AlarmTime.SubSeconds = 0x0;
 846              		.loc 1 315 3 is_stmt 1 view .LVU251
 315:Core/Src/main.cpp ****   sAlarm.AlarmTime.SubSeconds = 0x0;
 847              		.loc 1 315 28 is_stmt 0 view .LVU252
 848 008c 1022     		movs	r2, #16
 849 008e 8DF80220 		strb	r2, [sp, #2]
 316:Core/Src/main.cpp ****   sAlarm.AlarmTime.DayLightSaving = RTC_DAYLIGHTSAVING_NONE;
 850              		.loc 1 316 3 is_stmt 1 view .LVU253
ARM GAS  /tmp/ccgUkepq.s 			page 30


 316:Core/Src/main.cpp ****   sAlarm.AlarmTime.DayLightSaving = RTC_DAYLIGHTSAVING_NONE;
 851              		.loc 1 316 31 is_stmt 0 view .LVU254
 852 0092 0193     		str	r3, [sp, #4]
 317:Core/Src/main.cpp ****   sAlarm.AlarmTime.StoreOperation = RTC_STOREOPERATION_RESET;
 853              		.loc 1 317 3 is_stmt 1 view .LVU255
 317:Core/Src/main.cpp ****   sAlarm.AlarmTime.StoreOperation = RTC_STOREOPERATION_RESET;
 854              		.loc 1 317 35 is_stmt 0 view .LVU256
 855 0094 0393     		str	r3, [sp, #12]
 318:Core/Src/main.cpp ****   sAlarm.AlarmMask = RTC_ALARMMASK_DATEWEEKDAY|RTC_ALARMMASK_HOURS
 856              		.loc 1 318 3 is_stmt 1 view .LVU257
 318:Core/Src/main.cpp ****   sAlarm.AlarmMask = RTC_ALARMMASK_DATEWEEKDAY|RTC_ALARMMASK_HOURS
 857              		.loc 1 318 35 is_stmt 0 view .LVU258
 858 0096 0493     		str	r3, [sp, #16]
 319:Core/Src/main.cpp ****                               |RTC_ALARMMASK_MINUTES;
 859              		.loc 1 319 3 is_stmt 1 view .LVU259
 319:Core/Src/main.cpp ****                               |RTC_ALARMMASK_MINUTES;
 860              		.loc 1 319 20 is_stmt 0 view .LVU260
 861 0098 0E4A     		ldr	r2, .L56+8
 862 009a 0592     		str	r2, [sp, #20]
 321:Core/Src/main.cpp ****   sAlarm.AlarmDateWeekDaySel = RTC_ALARMDATEWEEKDAYSEL_DATE;
 863              		.loc 1 321 3 is_stmt 1 view .LVU261
 321:Core/Src/main.cpp ****   sAlarm.AlarmDateWeekDaySel = RTC_ALARMDATEWEEKDAYSEL_DATE;
 864              		.loc 1 321 29 is_stmt 0 view .LVU262
 865 009c 0693     		str	r3, [sp, #24]
 322:Core/Src/main.cpp ****   sAlarm.AlarmDateWeekDay = 0x1;
 866              		.loc 1 322 3 is_stmt 1 view .LVU263
 322:Core/Src/main.cpp ****   sAlarm.AlarmDateWeekDay = 0x1;
 867              		.loc 1 322 30 is_stmt 0 view .LVU264
 868 009e 0793     		str	r3, [sp, #28]
 323:Core/Src/main.cpp ****   sAlarm.Alarm = RTC_ALARM_A;
 869              		.loc 1 323 3 is_stmt 1 view .LVU265
 323:Core/Src/main.cpp ****   sAlarm.Alarm = RTC_ALARM_A;
 870              		.loc 1 323 27 is_stmt 0 view .LVU266
 871 00a0 0122     		movs	r2, #1
 872 00a2 8DF82020 		strb	r2, [sp, #32]
 324:Core/Src/main.cpp ****   if (HAL_RTC_SetAlarm_IT(&hrtc, &sAlarm, RTC_FORMAT_BCD) != HAL_OK)
 873              		.loc 1 324 3 is_stmt 1 view .LVU267
 324:Core/Src/main.cpp ****   if (HAL_RTC_SetAlarm_IT(&hrtc, &sAlarm, RTC_FORMAT_BCD) != HAL_OK)
 874              		.loc 1 324 16 is_stmt 0 view .LVU268
 875 00a6 4FF48073 		mov	r3, #256
 876 00aa 0993     		str	r3, [sp, #36]
 325:Core/Src/main.cpp ****   {
 877              		.loc 1 325 3 is_stmt 1 view .LVU269
 325:Core/Src/main.cpp ****   {
 878              		.loc 1 325 26 is_stmt 0 view .LVU270
 879 00ac 6946     		mov	r1, sp
 880 00ae 0748     		ldr	r0, .L56
 881 00b0 FFF7FEFF 		bl	HAL_RTC_SetAlarm_IT
 882              	.LVL24:
 325:Core/Src/main.cpp ****   {
 883              		.loc 1 325 3 discriminator 1 view .LVU271
 884 00b4 38B9     		cbnz	r0, .L55
 333:Core/Src/main.cpp **** 
 885              		.loc 1 333 1 view .LVU272
 886 00b6 10B0     		add	sp, sp, #64
 887              		.cfi_remember_state
 888              		.cfi_def_cfa_offset 8
ARM GAS  /tmp/ccgUkepq.s 			page 31


 889              		@ sp needed
 890 00b8 10BD     		pop	{r4, pc}
 891              	.L52:
 892              		.cfi_restore_state
 283:Core/Src/main.cpp ****   }
 893              		.loc 1 283 5 is_stmt 1 view .LVU273
 283:Core/Src/main.cpp ****   }
 894              		.loc 1 283 18 is_stmt 0 view .LVU274
 895 00ba FFF7FEFF 		bl	Error_Handler
 896              	.LVL25:
 897              	.L53:
 299:Core/Src/main.cpp ****   }
 898              		.loc 1 299 5 is_stmt 1 view .LVU275
 299:Core/Src/main.cpp ****   }
 899              		.loc 1 299 18 is_stmt 0 view .LVU276
 900 00be FFF7FEFF 		bl	Error_Handler
 901              	.LVL26:
 902              	.L54:
 308:Core/Src/main.cpp ****   }
 903              		.loc 1 308 5 is_stmt 1 view .LVU277
 308:Core/Src/main.cpp ****   }
 904              		.loc 1 308 18 is_stmt 0 view .LVU278
 905 00c2 FFF7FEFF 		bl	Error_Handler
 906              	.LVL27:
 907              	.L55:
 327:Core/Src/main.cpp ****   }
 908              		.loc 1 327 5 is_stmt 1 view .LVU279
 327:Core/Src/main.cpp ****   }
 909              		.loc 1 327 18 is_stmt 0 view .LVU280
 910 00c6 FFF7FEFF 		bl	Error_Handler
 911              	.LVL28:
 912              	.L57:
 913 00ca 00BF     		.align	2
 914              	.L56:
 915 00cc 00000000 		.word	hrtc
 916 00d0 00280040 		.word	1073752064
 917 00d4 00808080 		.word	-2139062272
 918              		.cfi_endproc
 919              	.LFE589:
 920              		.fnend
 922              		.section	.text._Z18SystemClock_Configv,"ax",%progbits
 923              		.align	1
 924              		.global	_Z18SystemClock_Configv
 925              		.syntax unified
 926              		.thumb
 927              		.thumb_func
 929              	_Z18SystemClock_Configv:
 930              		.fnstart
 931              	.LFB586:
 139:Core/Src/main.cpp ****   RCC_OscInitTypeDef RCC_OscInitStruct = {0};
 932              		.loc 1 139 1 is_stmt 1 view -0
 933              		.cfi_startproc
 934              		@ args = 0, pretend = 0, frame = 80
 935              		@ frame_needed = 0, uses_anonymous_args = 0
 936 0000 00B5     		push	{lr}
 937              		.save {lr}
 938              		.cfi_def_cfa_offset 4
ARM GAS  /tmp/ccgUkepq.s 			page 32


 939              		.cfi_offset 14, -4
 940              		.pad #84
 941 0002 95B0     		sub	sp, sp, #84
 942              		.cfi_def_cfa_offset 88
 140:Core/Src/main.cpp ****   RCC_ClkInitTypeDef RCC_ClkInitStruct = {0};
 943              		.loc 1 140 3 view .LVU282
 140:Core/Src/main.cpp ****   RCC_ClkInitTypeDef RCC_ClkInitStruct = {0};
 944              		.loc 1 140 22 is_stmt 0 view .LVU283
 945 0004 3022     		movs	r2, #48
 946 0006 0021     		movs	r1, #0
 947 0008 08A8     		add	r0, sp, #32
 948 000a FFF7FEFF 		bl	memset
 949              	.LVL29:
 141:Core/Src/main.cpp **** 
 950              		.loc 1 141 3 is_stmt 1 view .LVU284
 141:Core/Src/main.cpp **** 
 951              		.loc 1 141 22 is_stmt 0 view .LVU285
 952 000e 0023     		movs	r3, #0
 953 0010 0393     		str	r3, [sp, #12]
 954 0012 0493     		str	r3, [sp, #16]
 955 0014 0593     		str	r3, [sp, #20]
 956 0016 0693     		str	r3, [sp, #24]
 957 0018 0793     		str	r3, [sp, #28]
 145:Core/Src/main.cpp ****   __HAL_PWR_VOLTAGESCALING_CONFIG(PWR_REGULATOR_VOLTAGE_SCALE2);
 958              		.loc 1 145 3 is_stmt 1 view .LVU286
 959              	.LBB11:
 145:Core/Src/main.cpp ****   __HAL_PWR_VOLTAGESCALING_CONFIG(PWR_REGULATOR_VOLTAGE_SCALE2);
 960              		.loc 1 145 3 view .LVU287
 961 001a 0193     		str	r3, [sp, #4]
 145:Core/Src/main.cpp ****   __HAL_PWR_VOLTAGESCALING_CONFIG(PWR_REGULATOR_VOLTAGE_SCALE2);
 962              		.loc 1 145 3 view .LVU288
 963 001c 254A     		ldr	r2, .L64
 964 001e 116C     		ldr	r1, [r2, #64]
 965 0020 41F08051 		orr	r1, r1, #268435456
 966 0024 1164     		str	r1, [r2, #64]
 145:Core/Src/main.cpp ****   __HAL_PWR_VOLTAGESCALING_CONFIG(PWR_REGULATOR_VOLTAGE_SCALE2);
 967              		.loc 1 145 3 view .LVU289
 968 0026 126C     		ldr	r2, [r2, #64]
 969 0028 02F08052 		and	r2, r2, #268435456
 970 002c 0192     		str	r2, [sp, #4]
 145:Core/Src/main.cpp ****   __HAL_PWR_VOLTAGESCALING_CONFIG(PWR_REGULATOR_VOLTAGE_SCALE2);
 971              		.loc 1 145 3 view .LVU290
 972 002e 019A     		ldr	r2, [sp, #4]
 973              	.LBE11:
 145:Core/Src/main.cpp ****   __HAL_PWR_VOLTAGESCALING_CONFIG(PWR_REGULATOR_VOLTAGE_SCALE2);
 974              		.loc 1 145 3 view .LVU291
 146:Core/Src/main.cpp **** 
 975              		.loc 1 146 3 view .LVU292
 976              	.LBB12:
 146:Core/Src/main.cpp **** 
 977              		.loc 1 146 3 view .LVU293
 978 0030 0293     		str	r3, [sp, #8]
 146:Core/Src/main.cpp **** 
 979              		.loc 1 146 3 view .LVU294
 980 0032 214A     		ldr	r2, .L64+4
 981 0034 1368     		ldr	r3, [r2]
 982 0036 23F44043 		bic	r3, r3, #49152
ARM GAS  /tmp/ccgUkepq.s 			page 33


 983 003a 43F40043 		orr	r3, r3, #32768
 984 003e 1360     		str	r3, [r2]
 146:Core/Src/main.cpp **** 
 985              		.loc 1 146 3 view .LVU295
 986 0040 1368     		ldr	r3, [r2]
 987 0042 03F44043 		and	r3, r3, #49152
 988 0046 0293     		str	r3, [sp, #8]
 146:Core/Src/main.cpp **** 
 989              		.loc 1 146 3 view .LVU296
 990 0048 029B     		ldr	r3, [sp, #8]
 991              	.LBE12:
 146:Core/Src/main.cpp **** 
 992              		.loc 1 146 3 view .LVU297
 151:Core/Src/main.cpp ****                               |RCC_OSCILLATORTYPE_HSE;
 993              		.loc 1 151 3 view .LVU298
 151:Core/Src/main.cpp ****                               |RCC_OSCILLATORTYPE_HSE;
 994              		.loc 1 151 36 is_stmt 0 view .LVU299
 995 004a 0B23     		movs	r3, #11
 996 004c 0893     		str	r3, [sp, #32]
 153:Core/Src/main.cpp ****   RCC_OscInitStruct.HSIState = RCC_HSI_ON;
 997              		.loc 1 153 3 is_stmt 1 view .LVU300
 153:Core/Src/main.cpp ****   RCC_OscInitStruct.HSIState = RCC_HSI_ON;
 998              		.loc 1 153 30 is_stmt 0 view .LVU301
 999 004e 4FF48033 		mov	r3, #65536
 1000 0052 0993     		str	r3, [sp, #36]
 154:Core/Src/main.cpp ****   RCC_OscInitStruct.HSICalibrationValue = RCC_HSICALIBRATION_DEFAULT;
 1001              		.loc 1 154 3 is_stmt 1 view .LVU302
 154:Core/Src/main.cpp ****   RCC_OscInitStruct.HSICalibrationValue = RCC_HSICALIBRATION_DEFAULT;
 1002              		.loc 1 154 30 is_stmt 0 view .LVU303
 1003 0054 0123     		movs	r3, #1
 1004 0056 0B93     		str	r3, [sp, #44]
 155:Core/Src/main.cpp ****   RCC_OscInitStruct.LSIState = RCC_LSI_ON;
 1005              		.loc 1 155 3 is_stmt 1 view .LVU304
 155:Core/Src/main.cpp ****   RCC_OscInitStruct.LSIState = RCC_LSI_ON;
 1006              		.loc 1 155 41 is_stmt 0 view .LVU305
 1007 0058 1022     		movs	r2, #16
 1008 005a 0C92     		str	r2, [sp, #48]
 156:Core/Src/main.cpp ****   RCC_OscInitStruct.PLL.PLLState = RCC_PLL_ON;
 1009              		.loc 1 156 3 is_stmt 1 view .LVU306
 156:Core/Src/main.cpp ****   RCC_OscInitStruct.PLL.PLLState = RCC_PLL_ON;
 1010              		.loc 1 156 30 is_stmt 0 view .LVU307
 1011 005c 0D93     		str	r3, [sp, #52]
 157:Core/Src/main.cpp ****   RCC_OscInitStruct.PLL.PLLSource = RCC_PLLSOURCE_HSE;
 1012              		.loc 1 157 3 is_stmt 1 view .LVU308
 157:Core/Src/main.cpp ****   RCC_OscInitStruct.PLL.PLLSource = RCC_PLLSOURCE_HSE;
 1013              		.loc 1 157 34 is_stmt 0 view .LVU309
 1014 005e 0223     		movs	r3, #2
 1015 0060 0E93     		str	r3, [sp, #56]
 158:Core/Src/main.cpp ****   RCC_OscInitStruct.PLL.PLLM = 25;
 1016              		.loc 1 158 3 is_stmt 1 view .LVU310
 158:Core/Src/main.cpp ****   RCC_OscInitStruct.PLL.PLLM = 25;
 1017              		.loc 1 158 35 is_stmt 0 view .LVU311
 1018 0062 4FF48002 		mov	r2, #4194304
 1019 0066 0F92     		str	r2, [sp, #60]
 159:Core/Src/main.cpp ****   RCC_OscInitStruct.PLL.PLLN = 168;
 1020              		.loc 1 159 3 is_stmt 1 view .LVU312
 159:Core/Src/main.cpp ****   RCC_OscInitStruct.PLL.PLLN = 168;
ARM GAS  /tmp/ccgUkepq.s 			page 34


 1021              		.loc 1 159 30 is_stmt 0 view .LVU313
 1022 0068 1922     		movs	r2, #25
 1023 006a 1092     		str	r2, [sp, #64]
 160:Core/Src/main.cpp ****   RCC_OscInitStruct.PLL.PLLP = RCC_PLLP_DIV2;
 1024              		.loc 1 160 3 is_stmt 1 view .LVU314
 160:Core/Src/main.cpp ****   RCC_OscInitStruct.PLL.PLLP = RCC_PLLP_DIV2;
 1025              		.loc 1 160 30 is_stmt 0 view .LVU315
 1026 006c A822     		movs	r2, #168
 1027 006e 1192     		str	r2, [sp, #68]
 161:Core/Src/main.cpp ****   RCC_OscInitStruct.PLL.PLLQ = 4;
 1028              		.loc 1 161 3 is_stmt 1 view .LVU316
 161:Core/Src/main.cpp ****   RCC_OscInitStruct.PLL.PLLQ = 4;
 1029              		.loc 1 161 30 is_stmt 0 view .LVU317
 1030 0070 1293     		str	r3, [sp, #72]
 162:Core/Src/main.cpp ****   if (HAL_RCC_OscConfig(&RCC_OscInitStruct) != HAL_OK)
 1031              		.loc 1 162 3 is_stmt 1 view .LVU318
 162:Core/Src/main.cpp ****   if (HAL_RCC_OscConfig(&RCC_OscInitStruct) != HAL_OK)
 1032              		.loc 1 162 30 is_stmt 0 view .LVU319
 1033 0072 0423     		movs	r3, #4
 1034 0074 1393     		str	r3, [sp, #76]
 163:Core/Src/main.cpp ****   {
 1035              		.loc 1 163 3 is_stmt 1 view .LVU320
 163:Core/Src/main.cpp ****   {
 1036              		.loc 1 163 24 is_stmt 0 view .LVU321
 1037 0076 08A8     		add	r0, sp, #32
 1038 0078 FFF7FEFF 		bl	HAL_RCC_OscConfig
 1039              	.LVL30:
 163:Core/Src/main.cpp ****   {
 1040              		.loc 1 163 3 discriminator 1 view .LVU322
 1041 007c A8B9     		cbnz	r0, .L62
 170:Core/Src/main.cpp ****                               |RCC_CLOCKTYPE_PCLK1|RCC_CLOCKTYPE_PCLK2;
 1042              		.loc 1 170 3 is_stmt 1 view .LVU323
 170:Core/Src/main.cpp ****                               |RCC_CLOCKTYPE_PCLK1|RCC_CLOCKTYPE_PCLK2;
 1043              		.loc 1 170 31 is_stmt 0 view .LVU324
 1044 007e 0F23     		movs	r3, #15
 1045 0080 0393     		str	r3, [sp, #12]
 172:Core/Src/main.cpp ****   RCC_ClkInitStruct.AHBCLKDivider = RCC_SYSCLK_DIV1;
 1046              		.loc 1 172 3 is_stmt 1 view .LVU325
 172:Core/Src/main.cpp ****   RCC_ClkInitStruct.AHBCLKDivider = RCC_SYSCLK_DIV1;
 1047              		.loc 1 172 34 is_stmt 0 view .LVU326
 1048 0082 0221     		movs	r1, #2
 1049 0084 0491     		str	r1, [sp, #16]
 173:Core/Src/main.cpp ****   RCC_ClkInitStruct.APB1CLKDivider = RCC_HCLK_DIV2;
 1050              		.loc 1 173 3 is_stmt 1 view .LVU327
 173:Core/Src/main.cpp ****   RCC_ClkInitStruct.APB1CLKDivider = RCC_HCLK_DIV2;
 1051              		.loc 1 173 35 is_stmt 0 view .LVU328
 1052 0086 0023     		movs	r3, #0
 1053 0088 0593     		str	r3, [sp, #20]
 174:Core/Src/main.cpp ****   RCC_ClkInitStruct.APB2CLKDivider = RCC_HCLK_DIV1;
 1054              		.loc 1 174 3 is_stmt 1 view .LVU329
 174:Core/Src/main.cpp ****   RCC_ClkInitStruct.APB2CLKDivider = RCC_HCLK_DIV1;
 1055              		.loc 1 174 36 is_stmt 0 view .LVU330
 1056 008a 4FF48052 		mov	r2, #4096
 1057 008e 0692     		str	r2, [sp, #24]
 175:Core/Src/main.cpp **** 
 1058              		.loc 1 175 3 is_stmt 1 view .LVU331
 175:Core/Src/main.cpp **** 
ARM GAS  /tmp/ccgUkepq.s 			page 35


 1059              		.loc 1 175 36 is_stmt 0 view .LVU332
 1060 0090 0793     		str	r3, [sp, #28]
 177:Core/Src/main.cpp ****   {
 1061              		.loc 1 177 3 is_stmt 1 view .LVU333
 177:Core/Src/main.cpp ****   {
 1062              		.loc 1 177 26 is_stmt 0 view .LVU334
 1063 0092 03A8     		add	r0, sp, #12
 1064 0094 FFF7FEFF 		bl	HAL_RCC_ClockConfig
 1065              	.LVL31:
 177:Core/Src/main.cpp ****   {
 1066              		.loc 1 177 3 discriminator 1 view .LVU335
 1067 0098 48B9     		cbnz	r0, .L63
 181:Core/Src/main.cpp **** }
 1068              		.loc 1 181 3 is_stmt 1 view .LVU336
 181:Core/Src/main.cpp **** }
 1069              		.loc 1 181 20 is_stmt 0 view .LVU337
 1070 009a 0022     		movs	r2, #0
 1071 009c 1146     		mov	r1, r2
 1072 009e 1046     		mov	r0, r2
 1073 00a0 FFF7FEFF 		bl	HAL_RCC_MCOConfig
 1074              	.LVL32:
 182:Core/Src/main.cpp **** 
 1075              		.loc 1 182 1 view .LVU338
 1076 00a4 15B0     		add	sp, sp, #84
 1077              		.cfi_remember_state
 1078              		.cfi_def_cfa_offset 4
 1079              		@ sp needed
 1080 00a6 5DF804FB 		ldr	pc, [sp], #4
 1081              	.L62:
 1082              		.cfi_restore_state
 165:Core/Src/main.cpp ****   }
 1083              		.loc 1 165 5 is_stmt 1 view .LVU339
 165:Core/Src/main.cpp ****   }
 1084              		.loc 1 165 18 is_stmt 0 view .LVU340
 1085 00aa FFF7FEFF 		bl	Error_Handler
 1086              	.LVL33:
 1087              	.L63:
 179:Core/Src/main.cpp ****   }
 1088              		.loc 1 179 5 is_stmt 1 view .LVU341
 179:Core/Src/main.cpp ****   }
 1089              		.loc 1 179 18 is_stmt 0 view .LVU342
 1090 00ae FFF7FEFF 		bl	Error_Handler
 1091              	.LVL34:
 1092              	.L65:
 1093 00b2 00BF     		.align	2
 1094              	.L64:
 1095 00b4 00380240 		.word	1073887232
 1096 00b8 00700040 		.word	1073770496
 1097              		.cfi_endproc
 1098              	.LFE586:
 1099              		.fnend
 1101              		.section	.text.main,"ax",%progbits
 1102              		.align	1
 1103              		.global	main
 1104              		.syntax unified
 1105              		.thumb
 1106              		.thumb_func
ARM GAS  /tmp/ccgUkepq.s 			page 36


 1108              	main:
 1109              		.fnstart
 1110              	.LFB585:
  89:Core/Src/main.cpp ****   /* USER CODE BEGIN 1 */
 1111              		.loc 1 89 1 is_stmt 1 view -0
 1112              		.cfi_startproc
 1113              		@ args = 0, pretend = 0, frame = 0
 1114              		@ frame_needed = 0, uses_anonymous_args = 0
 1115 0000 10B5     		push	{r4, lr}
 1116              		.save {r4, lr}
 1117              		.cfi_def_cfa_offset 8
 1118              		.cfi_offset 4, -8
 1119              		.cfi_offset 14, -4
  97:Core/Src/main.cpp **** 
 1120              		.loc 1 97 3 view .LVU344
  97:Core/Src/main.cpp **** 
 1121              		.loc 1 97 11 is_stmt 0 view .LVU345
 1122 0002 FFF7FEFF 		bl	HAL_Init
 1123              	.LVL35:
 104:Core/Src/main.cpp **** 
 1124              		.loc 1 104 3 is_stmt 1 view .LVU346
 104:Core/Src/main.cpp **** 
 1125              		.loc 1 104 21 is_stmt 0 view .LVU347
 1126 0006 FFF7FEFF 		bl	_Z18SystemClock_Configv
 1127              	.LVL36:
 111:Core/Src/main.cpp ****   MX_DMA_Init();
 1128              		.loc 1 111 3 is_stmt 1 view .LVU348
 111:Core/Src/main.cpp ****   MX_DMA_Init();
 1129              		.loc 1 111 15 is_stmt 0 view .LVU349
 1130 000a FFF7FEFF 		bl	_ZL12MX_GPIO_Initv
 1131              	.LVL37:
 112:Core/Src/main.cpp ****   MX_I2C1_Init();
 1132              		.loc 1 112 3 is_stmt 1 view .LVU350
 112:Core/Src/main.cpp ****   MX_I2C1_Init();
 1133              		.loc 1 112 14 is_stmt 0 view .LVU351
 1134 000e FFF7FEFF 		bl	_ZL11MX_DMA_Initv
 1135              	.LVL38:
 113:Core/Src/main.cpp ****   MX_I2S2_Init();
 1136              		.loc 1 113 3 is_stmt 1 view .LVU352
 113:Core/Src/main.cpp ****   MX_I2S2_Init();
 1137              		.loc 1 113 15 is_stmt 0 view .LVU353
 1138 0012 FFF7FEFF 		bl	_ZL12MX_I2C1_Initv
 1139              	.LVL39:
 114:Core/Src/main.cpp ****   MX_SPI1_Init();
 1140              		.loc 1 114 3 is_stmt 1 view .LVU354
 114:Core/Src/main.cpp ****   MX_SPI1_Init();
 1141              		.loc 1 114 15 is_stmt 0 view .LVU355
 1142 0016 FFF7FEFF 		bl	_ZL12MX_I2S2_Initv
 1143              	.LVL40:
 115:Core/Src/main.cpp ****   MX_USART1_UART_Init();
 1144              		.loc 1 115 3 is_stmt 1 view .LVU356
 115:Core/Src/main.cpp ****   MX_USART1_UART_Init();
 1145              		.loc 1 115 15 is_stmt 0 view .LVU357
 1146 001a FFF7FEFF 		bl	_ZL12MX_SPI1_Initv
 1147              	.LVL41:
 116:Core/Src/main.cpp ****   MX_RTC_Init();
 1148              		.loc 1 116 3 is_stmt 1 view .LVU358
ARM GAS  /tmp/ccgUkepq.s 			page 37


 116:Core/Src/main.cpp ****   MX_RTC_Init();
 1149              		.loc 1 116 22 is_stmt 0 view .LVU359
 1150 001e FFF7FEFF 		bl	_ZL19MX_USART1_UART_Initv
 1151              	.LVL42:
 117:Core/Src/main.cpp ****   /* USER CODE BEGIN 2 */
 1152              		.loc 1 117 3 is_stmt 1 view .LVU360
 117:Core/Src/main.cpp ****   /* USER CODE BEGIN 2 */
 1153              		.loc 1 117 14 is_stmt 0 view .LVU361
 1154 0022 FFF7FEFF 		bl	_ZL11MX_RTC_Initv
 1155              	.LVL43:
 119:Core/Src/main.cpp ****   audio_test::runTest(hi2c1, hdma_spi2_tx, i2sObj);
 1156              		.loc 1 119 3 is_stmt 1 view .LVU362
 119:Core/Src/main.cpp ****   audio_test::runTest(hi2c1, hdma_spi2_tx, i2sObj);
 1157              		.loc 1 119 19 is_stmt 0 view .LVU363
 1158 0026 054C     		ldr	r4, .L69
 1159 0028 2146     		mov	r1, r4
 1160 002a 0020     		movs	r0, #0
 1161 002c FFF7FEFF 		bl	_Z16register_handleriP16InterruptHandler
 1162              	.LVL44:
 120:Core/Src/main.cpp ****   /* USER CODE END 2 */
 1163              		.loc 1 120 3 is_stmt 1 view .LVU364
 120:Core/Src/main.cpp ****   /* USER CODE END 2 */
 1164              		.loc 1 120 22 is_stmt 0 view .LVU365
 1165 0030 2246     		mov	r2, r4
 1166 0032 0349     		ldr	r1, .L69+4
 1167 0034 0348     		ldr	r0, .L69+8
 1168 0036 FFF7FEFF 		bl	_ZN10audio_test7runTestER17I2C_HandleTypeDefR19__DMA_HandleTypeDefR9i2sObject
 1169              	.LVL45:
 1170              	.L67:
 125:Core/Src/main.cpp ****   {
 1171              		.loc 1 125 3 is_stmt 1 view .LVU366
 125:Core/Src/main.cpp ****   {
 1172              		.loc 1 125 3 view .LVU367
 1173 003a FEE7     		b	.L67
 1174              	.L70:
 1175              		.align	2
 1176              	.L69:
 1177 003c 00000000 		.word	i2sObj
 1178 0040 00000000 		.word	hdma_spi2_tx
 1179 0044 00000000 		.word	hi2c1
 1180              		.cfi_endproc
 1181              	.LFE585:
 1182              		.fnend
 1184              		.section	.text._GLOBAL__sub_I_hi2c1,"ax",%progbits
 1185              		.align	1
 1186              		.syntax unified
 1187              		.thumb
 1188              		.thumb_func
 1190              	_GLOBAL__sub_I_hi2c1:
 1191              		.fnstart
 1192              	.LFB598:
 1193              		.loc 1 496 1 view -0
 1194              		.cfi_startproc
 1195              		@ args = 0, pretend = 0, frame = 0
 1196              		@ frame_needed = 0, uses_anonymous_args = 0
 1197 0000 08B5     		push	{r3, lr}
 1198              		.cfi_def_cfa_offset 8
ARM GAS  /tmp/ccgUkepq.s 			page 38


 1199              		.cfi_offset 3, -8
 1200              		.cfi_offset 14, -4
 1201              		.loc 1 496 1 is_stmt 0 view .LVU369
 1202 0002 FFF7FEFF 		bl	_Z41__static_initialization_and_destruction_0v
 1203              	.LVL46:
 1204 0006 08BD     		pop	{r3, pc}
 1205              		.cfi_endproc
 1206              	.LFE598:
 1207              		.cantunwind
 1208              		.fnend
 1210              		.section	.init_array,"aw",%init_array
 1211              		.align	2
 1212 0000 00000000 		.word	_GLOBAL__sub_I_hi2c1(target1)
 1213              		.section	.bss._ZL8Handlers,"aw",%nobits
 1214              		.align	2
 1217              	_ZL8Handlers:
 1218 0000 00000000 		.space	4
 1219              		.global	i2sObj
 1220              		.section	.bss.i2sObj,"aw",%nobits
 1221              		.align	2
 1224              	i2sObj:
 1225 0000 00000000 		.space	12
 1225      00000000 
 1225      00000000 
 1226              		.global	huart1
 1227              		.section	.bss.huart1,"aw",%nobits
 1228              		.align	2
 1231              	huart1:
 1232 0000 00000000 		.space	68
 1232      00000000 
 1232      00000000 
 1232      00000000 
 1232      00000000 
 1233              		.global	hspi1
 1234              		.section	.bss.hspi1,"aw",%nobits
 1235              		.align	2
 1238              	hspi1:
 1239 0000 00000000 		.space	88
 1239      00000000 
 1239      00000000 
 1239      00000000 
 1239      00000000 
 1240              		.global	hrtc
 1241              		.section	.bss.hrtc,"aw",%nobits
 1242              		.align	2
 1245              	hrtc:
 1246 0000 00000000 		.space	32
 1246      00000000 
 1246      00000000 
 1246      00000000 
 1246      00000000 
 1247              		.global	hdma_spi2_tx
 1248              		.section	.bss.hdma_spi2_tx,"aw",%nobits
 1249              		.align	2
 1252              	hdma_spi2_tx:
 1253 0000 00000000 		.space	96
 1253      00000000 
ARM GAS  /tmp/ccgUkepq.s 			page 39


 1253      00000000 
 1253      00000000 
 1253      00000000 
 1254              		.global	hi2s2
 1255              		.section	.bss.hi2s2,"aw",%nobits
 1256              		.align	2
 1259              	hi2s2:
 1260 0000 00000000 		.space	72
 1260      00000000 
 1260      00000000 
 1260      00000000 
 1260      00000000 
 1261              		.global	hi2c1
 1262              		.section	.bss.hi2c1,"aw",%nobits
 1263              		.align	2
 1266              	hi2c1:
 1267 0000 00000000 		.space	84
 1267      00000000 
 1267      00000000 
 1267      00000000 
 1267      00000000 
 1268              		.text
 1269              	.Letext0:
 1270              		.file 3 "Drivers/CMSIS/Device/ST/STM32F4xx/Include/stm32f401xc.h"
 1271              		.file 4 "/usr/arm-none-eabi/include/machine/_default_types.h"
 1272              		.file 5 "/usr/arm-none-eabi/include/sys/_stdint.h"
 1273              		.file 6 "Drivers/STM32F4xx_HAL_Driver/Inc/stm32f4xx_hal_def.h"
 1274              		.file 7 "Drivers/STM32F4xx_HAL_Driver/Inc/stm32f4xx_hal_rcc_ex.h"
 1275              		.file 8 "Drivers/STM32F4xx_HAL_Driver/Inc/stm32f4xx_hal_rcc.h"
 1276              		.file 9 "Drivers/STM32F4xx_HAL_Driver/Inc/stm32f4xx_hal_gpio.h"
 1277              		.file 10 "Drivers/STM32F4xx_HAL_Driver/Inc/stm32f4xx_hal_dma.h"
 1278              		.file 11 "Drivers/STM32F4xx_HAL_Driver/Inc/stm32f4xx_hal_i2c.h"
 1279              		.file 12 "Drivers/STM32F4xx_HAL_Driver/Inc/stm32f4xx_hal_i2s.h"
 1280              		.file 13 "Drivers/STM32F4xx_HAL_Driver/Inc/stm32f4xx_hal_rtc.h"
 1281              		.file 14 "Drivers/STM32F4xx_HAL_Driver/Inc/stm32f4xx_hal_spi.h"
 1282              		.file 15 "Drivers/STM32F4xx_HAL_Driver/Inc/stm32f4xx_hal_uart.h"
 1283              		.file 16 "/usr/arm-none-eabi/include/c++/13.2.0/type_traits"
 1284              		.file 17 "/usr/arm-none-eabi/include/c++/13.2.0/debug/debug.h"
 1285              		.file 18 "/usr/arm-none-eabi/include/c++/13.2.0/bits/predefined_ops.h"
 1286              		.file 19 "/usr/arm-none-eabi/include/c++/13.2.0/arm-none-eabi/thumb/v7e-m+fp/hard/bits/c++config.h
 1287              		.file 20 "Core/Inc/sys_const.h"
 1288              		.file 21 "Core/Inc/audio_test.h"
 1289              		.file 22 "Drivers/STM32F4xx_HAL_Driver/Inc/stm32f4xx_hal_cortex.h"
 1290              		.file 23 "Intermediate/Inc/concrete_interrupt_handlers.h"
 1291              		.file 24 "Drivers/STM32F4xx_HAL_Driver/Inc/stm32f4xx_hal.h"
ARM GAS  /tmp/ccgUkepq.s 			page 40


DEFINED SYMBOLS
                            *ABS*:00000000 main.cpp
     /tmp/ccgUkepq.s:21     .text._ZL12MX_GPIO_Initv:00000000 $t
     /tmp/ccgUkepq.s:26     .text._ZL12MX_GPIO_Initv:00000000 _ZL12MX_GPIO_Initv
     /tmp/ccgUkepq.s:203    .text._ZL12MX_GPIO_Initv:000000c0 $d
.ARM.exidx.text._ZL12MX_GPIO_Initv:00000000 $d
     /tmp/ccgUkepq.s:211    .text._ZL11MX_DMA_Initv:00000000 $t
     /tmp/ccgUkepq.s:216    .text._ZL11MX_DMA_Initv:00000000 _ZL11MX_DMA_Initv
     /tmp/ccgUkepq.s:267    .text._ZL11MX_DMA_Initv:00000030 $d
.ARM.exidx.text._ZL11MX_DMA_Initv:00000000 $d
     /tmp/ccgUkepq.s:273    .text._Z41__static_initialization_and_destruction_0v:00000000 $t
     /tmp/ccgUkepq.s:278    .text._Z41__static_initialization_and_destruction_0v:00000000 _Z41__static_initialization_and_destruction_0v
     /tmp/ccgUkepq.s:299    .text._Z41__static_initialization_and_destruction_0v:0000000c $d
     /tmp/ccgUkepq.s:1259   .bss.hi2s2:00000000 hi2s2
     /tmp/ccgUkepq.s:1224   .bss.i2sObj:00000000 i2sObj
.ARM.exidx.text._Z41__static_initialization_and_destruction_0v:00000000 $d
     /tmp/ccgUkepq.s:307    .text.HAL_I2S_TxCpltCallback:00000000 $t
     /tmp/ccgUkepq.s:313    .text.HAL_I2S_TxCpltCallback:00000000 HAL_I2S_TxCpltCallback
     /tmp/ccgUkepq.s:342    .text.HAL_I2S_TxCpltCallback:00000010 $d
     /tmp/ccgUkepq.s:1217   .bss._ZL8Handlers:00000000 _ZL8Handlers
.ARM.extab.text.HAL_I2S_TxCpltCallback:00000000 $d
.ARM.exidx.text.HAL_I2S_TxCpltCallback:00000000 $d
     /tmp/ccgUkepq.s:348    .text._Z16register_handleriP16InterruptHandler:00000000 $t
     /tmp/ccgUkepq.s:354    .text._Z16register_handleriP16InterruptHandler:00000000 _Z16register_handleriP16InterruptHandler
     /tmp/ccgUkepq.s:372    .text._Z16register_handleriP16InterruptHandler:00000008 $d
.ARM.exidx.text._Z16register_handleriP16InterruptHandler:00000000 $d
     /tmp/ccgUkepq.s:379    .text.Error_Handler:00000000 $t
     /tmp/ccgUkepq.s:385    .text.Error_Handler:00000000 Error_Handler
    .ARM.exidx.text.Error_Handler:00000000 $d
     /tmp/ccgUkepq.s:419    .text._ZL12MX_I2C1_Initv:00000000 $t
     /tmp/ccgUkepq.s:424    .text._ZL12MX_I2C1_Initv:00000000 _ZL12MX_I2C1_Initv
     /tmp/ccgUkepq.s:484    .text._ZL12MX_I2C1_Initv:0000002c $d
     /tmp/ccgUkepq.s:1266   .bss.hi2c1:00000000 hi2c1
.ARM.extab.text._ZL12MX_I2C1_Initv:00000000 $d
.ARM.exidx.text._ZL12MX_I2C1_Initv:00000000 $d
     /tmp/ccgUkepq.s:492    .text._ZL12MX_I2S2_Initv:00000000 $t
     /tmp/ccgUkepq.s:497    .text._ZL12MX_I2S2_Initv:00000000 _ZL12MX_I2S2_Initv
     /tmp/ccgUkepq.s:559    .text._ZL12MX_I2S2_Initv:00000030 $d
.ARM.extab.text._ZL12MX_I2S2_Initv:00000000 $d
.ARM.exidx.text._ZL12MX_I2S2_Initv:00000000 $d
     /tmp/ccgUkepq.s:567    .text._ZL12MX_SPI1_Initv:00000000 $t
     /tmp/ccgUkepq.s:572    .text._ZL12MX_SPI1_Initv:00000000 _ZL12MX_SPI1_Initv
     /tmp/ccgUkepq.s:642    .text._ZL12MX_SPI1_Initv:00000038 $d
     /tmp/ccgUkepq.s:1238   .bss.hspi1:00000000 hspi1
.ARM.extab.text._ZL12MX_SPI1_Initv:00000000 $d
.ARM.exidx.text._ZL12MX_SPI1_Initv:00000000 $d
     /tmp/ccgUkepq.s:649    .text._ZL19MX_USART1_UART_Initv:00000000 $t
     /tmp/ccgUkepq.s:654    .text._ZL19MX_USART1_UART_Initv:00000000 _ZL19MX_USART1_UART_Initv
     /tmp/ccgUkepq.s:712    .text._ZL19MX_USART1_UART_Initv:00000030 $d
     /tmp/ccgUkepq.s:1231   .bss.huart1:00000000 huart1
.ARM.extab.text._ZL19MX_USART1_UART_Initv:00000000 $d
.ARM.exidx.text._ZL19MX_USART1_UART_Initv:00000000 $d
     /tmp/ccgUkepq.s:719    .text._ZL11MX_RTC_Initv:00000000 $t
     /tmp/ccgUkepq.s:724    .text._ZL11MX_RTC_Initv:00000000 _ZL11MX_RTC_Initv
     /tmp/ccgUkepq.s:915    .text._ZL11MX_RTC_Initv:000000cc $d
     /tmp/ccgUkepq.s:1245   .bss.hrtc:00000000 hrtc
.ARM.exidx.text._ZL11MX_RTC_Initv:00000000 $d
ARM GAS  /tmp/ccgUkepq.s 			page 41


     /tmp/ccgUkepq.s:923    .text._Z18SystemClock_Configv:00000000 $t
     /tmp/ccgUkepq.s:929    .text._Z18SystemClock_Configv:00000000 _Z18SystemClock_Configv
     /tmp/ccgUkepq.s:1095   .text._Z18SystemClock_Configv:000000b4 $d
.ARM.exidx.text._Z18SystemClock_Configv:00000000 $d
     /tmp/ccgUkepq.s:1102   .text.main:00000000 $t
     /tmp/ccgUkepq.s:1108   .text.main:00000000 main
     /tmp/ccgUkepq.s:1177   .text.main:0000003c $d
     /tmp/ccgUkepq.s:1252   .bss.hdma_spi2_tx:00000000 hdma_spi2_tx
             .ARM.exidx.text.main:00000000 $d
     /tmp/ccgUkepq.s:1185   .text._GLOBAL__sub_I_hi2c1:00000000 $t
     /tmp/ccgUkepq.s:1190   .text._GLOBAL__sub_I_hi2c1:00000000 _GLOBAL__sub_I_hi2c1
.ARM.exidx.text._GLOBAL__sub_I_hi2c1:00000000 $d
     /tmp/ccgUkepq.s:1211   .init_array:00000000 $d
     /tmp/ccgUkepq.s:1214   .bss._ZL8Handlers:00000000 $d
     /tmp/ccgUkepq.s:1221   .bss.i2sObj:00000000 $d
     /tmp/ccgUkepq.s:1228   .bss.huart1:00000000 $d
     /tmp/ccgUkepq.s:1235   .bss.hspi1:00000000 $d
     /tmp/ccgUkepq.s:1242   .bss.hrtc:00000000 $d
     /tmp/ccgUkepq.s:1249   .bss.hdma_spi2_tx:00000000 $d
     /tmp/ccgUkepq.s:1256   .bss.hi2s2:00000000 $d
     /tmp/ccgUkepq.s:1263   .bss.hi2c1:00000000 $d

UNDEFINED SYMBOLS
HAL_GPIO_WritePin
HAL_GPIO_Init
__aeabi_unwind_cpp_pr0
HAL_NVIC_SetPriority
HAL_NVIC_EnableIRQ
_ZN9i2sObjectC1ER19__I2S_HandleTypeDef
__aeabi_unwind_cpp_pr1
HAL_I2C_Init
HAL_I2S_Init
HAL_SPI_Init
HAL_UART_Init
memset
HAL_RTC_Init
HAL_RTC_SetTime
HAL_RTC_SetDate
HAL_RTC_SetAlarm_IT
HAL_RCC_OscConfig
HAL_RCC_ClockConfig
HAL_RCC_MCOConfig
HAL_Init
_ZN10audio_test7runTestER17I2C_HandleTypeDefR19__DMA_HandleTypeDefR9i2sObject
